SF:/home/isoula/om/shriven_zenith/bldg_blocks/logging.h
FN:322,_ZN10BldgBlocks11initLoggingERKNSt7__cxx1112basic_stringIcSt11char_traitsIcESaIcEEE
FN:123,_ZN10BldgBlocks6LoggerC2ERKNSt7__cxx1112basic_stringIcSt11char_traitsIcESaIcEEE
FN:30,_ZN10BldgBlocks17LockFreeLogBufferILm16384EEC2Ev
FN:156,_ZZN10BldgBlocks6LoggerC1ERKNSt7__cxx1112basic_stringIcSt11char_traitsIcESaIcEEEENKUlvE_clEv
FN:239,_ZN10BldgBlocks6Logger10writerLoopEv
FN:97,_ZNK10BldgBlocks17LockFreeLogBufferILm16384EE5emptyEv
FN:91,_ZNK10BldgBlocks17LockFreeLogBufferILm16384EE4sizeEv
FN:75,_ZN10BldgBlocks17LockFreeLogBufferILm16384EE4readERNS1_8LogEntryE
FN:295,_ZNK10BldgBlocks6Logger15formatTimestampEmPcm
FN:284,_ZNK10BldgBlocks6Logger13levelToStringENS0_5LevelE
FN:329,_ZN10BldgBlocks15shutdownLoggingEv
FN:216,_ZN10BldgBlocks6Logger4stopEv
FN:165,_ZN10BldgBlocks6LoggerD2Ev
FN:197,_ZN10BldgBlocks6Logger4infoIJEEEvPKcDpOT_
FN:171,_ZN10BldgBlocks6Logger3logIJEEEvNS0_5LevelEPKcDpOT_
FN:36,_ZN10BldgBlocks17LockFreeLogBufferILm16384EE5writeEtPKcm
FN:197,_ZN10BldgBlocks6Logger4infoIJRmS2_S2_S2_RdEEEvPKcDpOT_
FN:171,_ZN10BldgBlocks6Logger3logIJRmS2_S2_S2_RdEEEvNS0_5LevelEPKcDpOT_
FN:197,_ZN10BldgBlocks6Logger4infoIJRmS2_S2_S2_EEEvPKcDpOT_
FN:171,_ZN10BldgBlocks6Logger3logIJRmS2_S2_S2_EEEvNS0_5LevelEPKcDpOT_
FN:197,_ZN10BldgBlocks6Logger4infoIJiiiEEEvPKcDpOT_
FN:171,_ZN10BldgBlocks6Logger3logIJiiiEEEvNS0_5LevelEPKcDpOT_
FN:197,_ZN10BldgBlocks6Logger4infoIJiEEEvPKcDpOT_
FN:171,_ZN10BldgBlocks6Logger3logIJiEEEvNS0_5LevelEPKcDpOT_
FN:197,_ZN10BldgBlocks6Logger4infoIJlRiEEEvPKcDpOT_
FN:171,_ZN10BldgBlocks6Logger3logIJlRiEEEvNS0_5LevelEPKcDpOT_
FN:230,_ZNK10BldgBlocks6Logger8getStatsEv
FN:197,_ZN10BldgBlocks6Logger4infoIJRKiRiiPKcEEEvS6_DpOT_
FN:171,_ZN10BldgBlocks6Logger3logIJRKiRiiPKcEEEvNS0_5LevelES6_DpOT_
FN:202,_ZN10BldgBlocks6Logger4warnIJEEEvPKcDpOT_
FN:192,_ZN10BldgBlocks6Logger5debugIJiEEEvPKcDpOT_
FN:202,_ZN10BldgBlocks6Logger4warnIJiEEEvPKcDpOT_
FN:207,_ZN10BldgBlocks6Logger5errorIJEEEvPKcDpOT_
FN:212,_ZN10BldgBlocks6Logger5fatalIJEEEvPKcDpOT_
FN:197,_ZN10BldgBlocks6Logger4infoIJRKiEEEvPKcDpOT_
FN:171,_ZN10BldgBlocks6Logger3logIJRKiEEEvNS0_5LevelEPKcDpOT_
FN:197,_ZN10BldgBlocks6Logger4infoIJRKiRKmS5_EEEvPKcDpOT_
FN:171,_ZN10BldgBlocks6Logger3logIJRKiRKmS5_EEEvNS0_5LevelEPKcDpOT_
FN:197,_ZN10BldgBlocks6Logger4infoIJRPKcmEEEvS3_DpOT_
FN:171,_ZN10BldgBlocks6Logger3logIJRPKcmEEEvNS0_5LevelES3_DpOT_
FN:197,_ZN10BldgBlocks6Logger4infoIJRKiRKmRPKcS5_RA5_S6_EEEvS7_DpOT_
FN:171,_ZN10BldgBlocks6Logger3logIJRKiRKmRPKcS5_RA5_S6_EEEvNS0_5LevelES7_DpOT_
FN:197,_ZN10BldgBlocks6Logger4infoIJPKcEEEvS3_DpOT_
FN:171,_ZN10BldgBlocks6Logger3logIJPKcEEEvNS0_5LevelES3_DpOT_
FN:197,_ZN10BldgBlocks6Logger4infoIJRiEEEvPKcDpOT_
FN:171,_ZN10BldgBlocks6Logger3logIJRiEEEvNS0_5LevelEPKcDpOT_
FN:197,_ZN10BldgBlocks6Logger4infoIJRmS2_S2_EEEvPKcDpOT_
FN:171,_ZN10BldgBlocks6Logger3logIJRmS2_S2_EEEvNS0_5LevelEPKcDpOT_
FN:197,_ZN10BldgBlocks6Logger4infoIJlmEEEvPKcDpOT_
FN:171,_ZN10BldgBlocks6Logger3logIJlmEEEvNS0_5LevelEPKcDpOT_
FN:197,_ZN10BldgBlocks6Logger4infoIJRmS2_RdS3_EEEvPKcDpOT_
FN:171,_ZN10BldgBlocks6Logger3logIJRmS2_RdS3_EEEvNS0_5LevelEPKcDpOT_
FN:197,_ZN10BldgBlocks6Logger4infoIJRmRKiRdRKmEEEvPKcDpOT_
FN:171,_ZN10BldgBlocks6Logger3logIJRmRKiRdRKmEEEvNS0_5LevelEPKcDpOT_
FN:197,_ZN10BldgBlocks6Logger4infoIJRKiS3_S3_EEEvPKcDpOT_
FN:171,_ZN10BldgBlocks6Logger3logIJRKiS3_S3_EEEvNS0_5LevelEPKcDpOT_
FN:197,_ZN10BldgBlocks6Logger4infoIJRmS2_RdEEEvPKcDpOT_
FN:171,_ZN10BldgBlocks6Logger3logIJRmS2_RdEEEvNS0_5LevelEPKcDpOT_
FN:197,_ZN10BldgBlocks6Logger4infoIJRiRKiEEEvPKcDpOT_
FN:171,_ZN10BldgBlocks6Logger3logIJRiRKiEEEvNS0_5LevelEPKcDpOT_
FN:30,_ZN10BldgBlocks17LockFreeLogBufferILm1024EEC2Ev
FN:97,_ZNK10BldgBlocks17LockFreeLogBufferILm1024EE5emptyEv
FN:98,_ZNK10BldgBlocks17LockFreeLogBufferILm1024EE4fullEv
FN:91,_ZNK10BldgBlocks17LockFreeLogBufferILm1024EE4sizeEv
FN:36,_ZN10BldgBlocks17LockFreeLogBufferILm1024EE5writeEtPKcm
FN:75,_ZN10BldgBlocks17LockFreeLogBufferILm1024EE4readERNS1_8LogEntryE
FNDA:30,_ZN10BldgBlocks11initLoggingERKNSt7__cxx1112basic_stringIcSt11char_traitsIcESaIcEEE
FNDA:30,_ZN10BldgBlocks6LoggerC2ERKNSt7__cxx1112basic_stringIcSt11char_traitsIcESaIcEEE
FNDA:30,_ZN10BldgBlocks17LockFreeLogBufferILm16384EEC2Ev
FNDA:30,_ZZN10BldgBlocks6LoggerC1ERKNSt7__cxx1112basic_stringIcSt11char_traitsIcESaIcEEEENKUlvE_clEv
FNDA:30,_ZN10BldgBlocks6Logger10writerLoopEv
FNDA:60,_ZNK10BldgBlocks17LockFreeLogBufferILm16384EE5emptyEv
FNDA:60,_ZNK10BldgBlocks17LockFreeLogBufferILm16384EE4sizeEv
FNDA:47032,_ZN10BldgBlocks17LockFreeLogBufferILm16384EE4readERNS1_8LogEntryE
FNDA:32826,_ZNK10BldgBlocks6Logger15formatTimestampEmPcm
FNDA:32826,_ZNK10BldgBlocks6Logger13levelToStringENS0_5LevelE
FNDA:38,_ZN10BldgBlocks15shutdownLoggingEv
FNDA:58,_ZN10BldgBlocks6Logger4stopEv
FNDA:29,_ZN10BldgBlocks6LoggerD2Ev
FNDA:62,_ZN10BldgBlocks6Logger4infoIJEEEvPKcDpOT_
FNDA:64,_ZN10BldgBlocks6Logger3logIJEEEvNS0_5LevelEPKcDpOT_
FNDA:36753,_ZN10BldgBlocks17LockFreeLogBufferILm16384EE5writeEtPKcm
FNDA:2,_ZN10BldgBlocks6Logger4infoIJRmS2_S2_S2_RdEEEvPKcDpOT_
FNDA:2,_ZN10BldgBlocks6Logger3logIJRmS2_S2_S2_RdEEEvNS0_5LevelEPKcDpOT_
FNDA:2,_ZN10BldgBlocks6Logger4infoIJRmS2_S2_S2_EEEvPKcDpOT_
FNDA:2,_ZN10BldgBlocks6Logger3logIJRmS2_S2_S2_EEEvNS0_5LevelEPKcDpOT_
FNDA:2,_ZN10BldgBlocks6Logger4infoIJiiiEEEvPKcDpOT_
FNDA:2,_ZN10BldgBlocks6Logger3logIJiiiEEEvNS0_5LevelEPKcDpOT_
FNDA:3,_ZN10BldgBlocks6Logger4infoIJiEEEvPKcDpOT_
FNDA:5,_ZN10BldgBlocks6Logger3logIJiEEEvNS0_5LevelEPKcDpOT_
FNDA:2,_ZN10BldgBlocks6Logger4infoIJlRiEEEvPKcDpOT_
FNDA:2,_ZN10BldgBlocks6Logger3logIJlRiEEEvNS0_5LevelEPKcDpOT_
FNDA:5,_ZNK10BldgBlocks6Logger8getStatsEv
FNDA:7285,_ZN10BldgBlocks6Logger4infoIJRKiRiiPKcEEEvS6_DpOT_
FNDA:7367,_ZN10BldgBlocks6Logger3logIJRKiRiiPKcEEEvNS0_5LevelES6_DpOT_
FNDA:0,_ZN10BldgBlocks6Logger4warnIJEEEvPKcDpOT_
FNDA:1,_ZN10BldgBlocks6Logger5debugIJiEEEvPKcDpOT_
FNDA:1,_ZN10BldgBlocks6Logger4warnIJiEEEvPKcDpOT_
FNDA:1,_ZN10BldgBlocks6Logger5errorIJEEEvPKcDpOT_
FNDA:1,_ZN10BldgBlocks6Logger5fatalIJEEEvPKcDpOT_
FNDA:1,_ZN10BldgBlocks6Logger4infoIJRKiEEEvPKcDpOT_
FNDA:1,_ZN10BldgBlocks6Logger3logIJRKiEEEvNS0_5LevelEPKcDpOT_
FNDA:1,_ZN10BldgBlocks6Logger4infoIJRKiRKmS5_EEEvPKcDpOT_
FNDA:1,_ZN10BldgBlocks6Logger3logIJRKiRKmS5_EEEvNS0_5LevelEPKcDpOT_
FNDA:1,_ZN10BldgBlocks6Logger4infoIJRPKcmEEEvS3_DpOT_
FNDA:1,_ZN10BldgBlocks6Logger3logIJRPKcmEEEvNS0_5LevelES3_DpOT_
FNDA:1,_ZN10BldgBlocks6Logger4infoIJRKiRKmRPKcS5_RA5_S6_EEEvS7_DpOT_
FNDA:1,_ZN10BldgBlocks6Logger3logIJRKiRKmRPKcS5_RA5_S6_EEEvNS0_5LevelES7_DpOT_
FNDA:2,_ZN10BldgBlocks6Logger4infoIJPKcEEEvS3_DpOT_
FNDA:2,_ZN10BldgBlocks6Logger3logIJPKcEEEvNS0_5LevelES3_DpOT_
FNDA:30100,_ZN10BldgBlocks6Logger4infoIJRiEEEvPKcDpOT_
FNDA:30100,_ZN10BldgBlocks6Logger3logIJRiEEEvNS0_5LevelEPKcDpOT_
FNDA:0,_ZN10BldgBlocks6Logger4infoIJRmS2_S2_EEEvPKcDpOT_
FNDA:0,_ZN10BldgBlocks6Logger3logIJRmS2_S2_EEEvNS0_5LevelEPKcDpOT_
FNDA:0,_ZN10BldgBlocks6Logger4infoIJlmEEEvPKcDpOT_
FNDA:0,_ZN10BldgBlocks6Logger3logIJlmEEEvNS0_5LevelEPKcDpOT_
FNDA:0,_ZN10BldgBlocks6Logger4infoIJRmS2_RdS3_EEEvPKcDpOT_
FNDA:0,_ZN10BldgBlocks6Logger3logIJRmS2_RdS3_EEEvNS0_5LevelEPKcDpOT_
FNDA:0,_ZN10BldgBlocks6Logger4infoIJRmRKiRdRKmEEEvPKcDpOT_
FNDA:0,_ZN10BldgBlocks6Logger3logIJRmRKiRdRKmEEEvNS0_5LevelEPKcDpOT_
FNDA:0,_ZN10BldgBlocks6Logger4infoIJRKiS3_S3_EEEvPKcDpOT_
FNDA:0,_ZN10BldgBlocks6Logger3logIJRKiS3_S3_EEEvNS0_5LevelEPKcDpOT_
FNDA:0,_ZN10BldgBlocks6Logger4infoIJRmS2_RdEEEvPKcDpOT_
FNDA:0,_ZN10BldgBlocks6Logger3logIJRmS2_RdEEEvNS0_5LevelEPKcDpOT_
FNDA:0,_ZN10BldgBlocks6Logger4infoIJRiRKiEEEvPKcDpOT_
FNDA:0,_ZN10BldgBlocks6Logger3logIJRiRKiEEEvNS0_5LevelEPKcDpOT_
FNDA:1,_ZN10BldgBlocks17LockFreeLogBufferILm1024EEC2Ev
FNDA:1025,_ZNK10BldgBlocks17LockFreeLogBufferILm1024EE5emptyEv
FNDA:3,_ZNK10BldgBlocks17LockFreeLogBufferILm1024EE4fullEv
FNDA:2053,_ZNK10BldgBlocks17LockFreeLogBufferILm1024EE4sizeEv
FNDA:1024,_ZN10BldgBlocks17LockFreeLogBufferILm1024EE5writeEtPKcm
FNDA:0,_ZN10BldgBlocks17LockFreeLogBufferILm1024EE4readERNS1_8LogEntryE
FNF:22
FNH:22
DA:30,31
DA:32,31
DA:33,31
DA:36,37777
DA:37,37777
DA:38,37777
DA:41,37777
DA:42,0
DA:43,0
DA:45,37777
DA:46,37777
DA:47,37777
DA:48,37777
DA:49,37777
DA:65,37777
DA:66,37777
DA:67,37777
DA:70,37777
DA:71,37777
DA:72,37777
DA:75,47032
DA:76,47032
DA:79,47032
DA:80,14206
DA:81,14206
DA:84,32826
DA:87,32826
DA:88,32826
DA:89,47032
DA:91,2113
DA:92,2113
DA:93,2113
DA:94,2113
DA:95,2113
DA:97,1085
DA:98,3
DA:123,30
DA:124,30
DA:125,30
DA:126,30
DA:129,30
DA:131,0
DA:132,0
DA:133,0
DA:136,0
DA:137,0
DA:138,0
DA:139,0
DA:142,0
DA:143,0
DA:144,0
DA:145,0
DA:147,0
DA:148,0
DA:149,0
DA:150,0
DA:151,30
DA:152,30
DA:153,30
DA:156,30
DA:159,30
DA:160,30
DA:161,30
DA:162,30
DA:163,30
DA:165,29
DA:166,29
DA:167,29
DA:171,37550
DA:172,37550
DA:173,37550
DA:176,37550
DA:177,37550
DA:178,37550
DA:179,37550
DA:180,37550
DA:181,37550
DA:183,36920
DA:185,0
DA:186,0
DA:187,36920
DA:188,37550
DA:192,1
DA:193,1
DA:194,1
DA:197,37464
DA:198,37464
DA:199,37464
DA:202,1
DA:203,1
DA:204,1
DA:207,1
DA:208,1
DA:209,1
DA:212,1
DA:213,1
DA:214,1
DA:216,58
DA:217,58
DA:218,29
DA:219,29
DA:220,29
DA:221,29
DA:222,58
DA:230,5
DA:231,5
DA:232,5
DA:233,5
DA:234,5
DA:235,5
DA:236,5
DA:239,30
DA:241,30
DA:242,30
DA:243,6
DA:244,6
DA:247,24
DA:249,24
DA:250,24
DA:252,47056
DA:253,47032
DA:255,32826
DA:258,32826
DA:259,32826
DA:260,32826
DA:261,32826
DA:262,32826
DA:264,32826
DA:265,32826
DA:266,32826
DA:267,32826
DA:270,32826
DA:271,32826
DA:272,328
DA:273,328
DA:274,328
DA:275,32826
DA:277,14206
DA:278,14206
DA:279,47032
DA:281,24
DA:282,24
DA:284,32826
DA:285,32826
DA:286,1
DA:287,32822
DA:288,1
DA:289,1
DA:290,1
DA:291,0
DA:292,32826
DA:293,32826
DA:295,32826
DA:297,32826
DA:298,32826
DA:300,32826
DA:301,32826
DA:303,32826
DA:304,32826
DA:322,30
DA:323,30
DA:324,30
DA:325,30
DA:326,30
DA:329,38
DA:330,38
DA:331,29
DA:332,29
DA:333,29
DA:334,29
DA:335,38
DA:338,1
DA:339,37355
DA:340,1
DA:341,1
DA:342,1
BRDA:41,0,0,0
BRDA:41,0,1,1024
BRDA:41,1,2,0
BRDA:41,1,3,36753
BRDA:79,0,0,-
BRDA:79,0,1,-
BRDA:79,1,2,14206
BRDA:79,1,3,32826
BRDA:129,0,0,0
BRDA:129,0,1,30
BRDA:137,0,0,-
BRDA:137,0,1,-
BRDA:181,0,0,-
BRDA:181,0,1,-
BRDA:181,1,2,1
BRDA:181,1,3,0
BRDA:181,2,4,1
BRDA:181,2,5,0
BRDA:181,3,6,1
BRDA:181,3,7,0
BRDA:181,4,8,6939
BRDA:181,4,9,428
BRDA:181,5,10,1
BRDA:181,5,11,0
BRDA:181,6,12,2
BRDA:181,6,13,0
BRDA:181,7,14,5
BRDA:181,7,15,0
BRDA:181,8,16,2
BRDA:181,8,17,0
BRDA:181,9,18,2
BRDA:181,9,19,0
BRDA:181,10,20,2
BRDA:181,10,21,0
BRDA:181,11,22,30100
BRDA:181,11,23,0
BRDA:181,12,24,2
BRDA:181,12,25,0
BRDA:181,13,26,64
BRDA:181,13,27,0
BRDA:181,14,28,-
BRDA:181,14,29,-
BRDA:181,15,30,-
BRDA:181,15,31,-
BRDA:181,16,32,-
BRDA:181,16,33,-
BRDA:181,17,34,-
BRDA:181,17,35,-
BRDA:181,18,36,-
BRDA:181,18,37,-
BRDA:181,19,38,-
BRDA:181,19,39,-
BRDA:181,20,40,-
BRDA:181,20,41,-
BRDA:181,21,42,-
BRDA:181,21,43,-
BRDA:181,22,44,1
BRDA:181,22,45,0
BRDA:181,23,46,-
BRDA:181,23,47,-
BRDA:181,24,48,-
BRDA:181,24,49,-
BRDA:181,25,50,1
BRDA:181,25,51,0
BRDA:181,26,52,-
BRDA:181,26,53,-
BRDA:181,27,54,0
BRDA:181,27,55,2
BRDA:181,28,56,-
BRDA:181,28,57,-
BRDA:181,29,58,30100
BRDA:181,29,59,0
BRDA:181,30,60,1
BRDA:181,30,61,0
BRDA:181,31,62,6836
BRDA:181,31,63,103
BRDA:181,32,64,2
BRDA:181,32,65,0
BRDA:181,33,66,5
BRDA:181,33,67,0
BRDA:181,34,68,2
BRDA:181,34,69,0
BRDA:181,35,70,2
BRDA:181,35,71,0
BRDA:181,36,72,2
BRDA:181,36,73,0
BRDA:181,37,74,64
BRDA:181,37,75,0
BRDA:181,38,76,-
BRDA:181,38,77,-
BRDA:181,39,78,1
BRDA:181,39,79,0
BRDA:183,0,0,0
BRDA:183,0,1,1
BRDA:183,1,2,0
BRDA:183,1,3,1
BRDA:183,2,4,0
BRDA:183,2,5,1
BRDA:183,3,6,0
BRDA:183,3,7,1
BRDA:183,4,8,0
BRDA:183,4,9,6739
BRDA:183,5,10,0
BRDA:183,5,11,2
BRDA:183,6,12,0
BRDA:183,6,13,5
BRDA:183,7,14,0
BRDA:183,7,15,2
BRDA:183,8,16,0
BRDA:183,8,17,2
BRDA:183,9,18,0
BRDA:183,9,19,2
BRDA:183,10,20,0
BRDA:183,10,21,64
BRDA:183,11,22,-
BRDA:183,11,23,-
BRDA:183,12,24,0
BRDA:183,12,25,30100
BRDA:183,13,26,-
BRDA:183,13,27,-
BRDA:183,14,28,-
BRDA:183,14,29,-
BRDA:183,15,30,-
BRDA:183,15,31,-
BRDA:183,16,32,-
BRDA:183,16,33,-
BRDA:183,17,34,-
BRDA:183,17,35,-
BRDA:183,18,36,-
BRDA:183,18,37,-
BRDA:183,19,38,-
BRDA:183,19,39,-
BRDA:217,0,0,29
BRDA:217,0,1,29
BRDA:218,0,0,29
BRDA:218,0,1,0
BRDA:242,0,0,6
BRDA:242,0,1,24
BRDA:252,0,0,46996
BRDA:252,0,1,60
BRDA:252,1,2,37
BRDA:252,1,3,23
BRDA:253,0,0,32826
BRDA:253,0,1,14206
BRDA:264,0,0,32826
BRDA:264,0,1,0
BRDA:271,0,0,327
BRDA:271,0,1,32499
BRDA:271,1,2,1
BRDA:271,1,3,32498
BRDA:286,0,0,1
BRDA:286,0,1,32825
BRDA:287,0,0,32822
BRDA:287,0,1,4
BRDA:288,0,0,1
BRDA:288,0,1,32825
BRDA:289,0,0,1
BRDA:289,0,1,32825
BRDA:290,0,0,1
BRDA:290,0,1,32825
BRDA:291,0,0,0
BRDA:291,0,1,32826
BRDA:323,0,0,30
BRDA:323,0,1,0
BRDA:330,0,0,29
BRDA:330,0,1,9
BRF:48
BRH:39
LF:172
LH:152
end_of_record
SF:/home/isoula/om/shriven_zenith/bldg_blocks/macros.h
FN:54,_Z6ASSERTbRKNSt7__cxx1112basic_stringIcSt11char_traitsIcESaIcEEE
FN:61,_Z5FATALRKNSt7__cxx1112basic_stringIcSt11char_traitsIcESaIcEEE
FNDA:32,_Z6ASSERTbRKNSt7__cxx1112basic_stringIcSt11char_traitsIcESaIcEEE
FNDA:0,_Z5FATALRKNSt7__cxx1112basic_stringIcSt11char_traitsIcESaIcEEE
FNF:2
FNH:1
DA:9,1219878
DA:54,32
DA:55,32
DA:56,0
DA:57,0
DA:58,0
DA:59,32
DA:61,0
DA:62,0
DA:63,0
DA:64,0
BRDA:55,0,0,0
BRDA:55,0,1,32
BRF:2
BRH:1
LF:10
LH:3
end_of_record
SF:/home/isoula/om/shriven_zenith/bldg_blocks/mem_pool.h
FN:64,_ZN10BldgBlocks10MemoryPoolILm512ELm4000ELNS_10ZeroPolicyE0EE8allocateEv
FN:343,_ZNK10BldgBlocks10MemoryPoolILm512ELm4000ELNS_10ZeroPolicyE0EE14indexToPayloadEj
FN:117,_ZN10BldgBlocks10MemoryPoolILm512ELm4000ELNS_10ZeroPolicyE0EE10deallocateEPv
FN:359,_ZNK10BldgBlocks10MemoryPoolILm512ELm4000ELNS_10ZeroPolicyE0EE14isValidPointerEPv
FN:348,_ZNK10BldgBlocks10MemoryPoolILm512ELm4000ELNS_10ZeroPolicyE0EE14payloadToIndexEPv
FN:44,_ZN10BldgBlocks10MemoryPoolILm1024ELm100ELNS_10ZeroPolicyE0EEC2Ei
FN:242,_ZN10BldgBlocks10MemoryPoolILm1024ELm100ELNS_10ZeroPolicyE0EE14allocateMemoryEv
FN:287,_ZN10BldgBlocks10MemoryPoolILm1024ELm100ELNS_10ZeroPolicyE0EE18initializeFreeListEv
FN:307,_ZN10BldgBlocks10MemoryPoolILm1024ELm100ELNS_10ZeroPolicyE0EE13prefaultPagesEv
FN:54,_ZN10BldgBlocks10MemoryPoolILm1024ELm100ELNS_10ZeroPolicyE0EED2Ev
FN:267,_ZN10BldgBlocks10MemoryPoolILm1024ELm100ELNS_10ZeroPolicyE0EE16deallocateMemoryEv
FN:197,_ZNK10BldgBlocks10MemoryPoolILm1024ELm100ELNS_10ZeroPolicyE0EE15allocatedBlocksEv
FN:200,_ZNK10BldgBlocks10MemoryPoolILm1024ELm100ELNS_10ZeroPolicyE0EE10freeBlocksEv
FN:207,_ZNK10BldgBlocks10MemoryPoolILm1024ELm100ELNS_10ZeroPolicyE0EE4fullEv
FN:206,_ZNK10BldgBlocks10MemoryPoolILm1024ELm100ELNS_10ZeroPolicyE0EE5emptyEv
FN:219,_ZNK10BldgBlocks10MemoryPoolILm1024ELm100ELNS_10ZeroPolicyE0EE7isValidEv
FN:64,_ZN10BldgBlocks10MemoryPoolILm1024ELm100ELNS_10ZeroPolicyE0EE8allocateEv
FN:343,_ZNK10BldgBlocks10MemoryPoolILm1024ELm100ELNS_10ZeroPolicyE0EE14indexToPayloadEj
FN:196,_ZNK10BldgBlocks10MemoryPoolILm1024ELm100ELNS_10ZeroPolicyE0EE11totalBlocksEv
FN:203,_ZNK10BldgBlocks10MemoryPoolILm1024ELm100ELNS_10ZeroPolicyE0EE9blockSizeEv
FN:204,_ZNK10BldgBlocks10MemoryPoolILm1024ELm100ELNS_10ZeroPolicyE0EE11totalMemoryEv
FN:117,_ZN10BldgBlocks10MemoryPoolILm1024ELm100ELNS_10ZeroPolicyE0EE10deallocateEPv
FN:359,_ZNK10BldgBlocks10MemoryPoolILm1024ELm100ELNS_10ZeroPolicyE0EE14isValidPointerEPv
FN:348,_ZNK10BldgBlocks10MemoryPoolILm1024ELm100ELNS_10ZeroPolicyE0EE14payloadToIndexEPv
FN:44,_ZN10BldgBlocks10MemoryPoolILm64ELm3ELNS_10ZeroPolicyE0EEC2Ei
FN:242,_ZN10BldgBlocks10MemoryPoolILm64ELm3ELNS_10ZeroPolicyE0EE14allocateMemoryEv
FN:287,_ZN10BldgBlocks10MemoryPoolILm64ELm3ELNS_10ZeroPolicyE0EE18initializeFreeListEv
FN:307,_ZN10BldgBlocks10MemoryPoolILm64ELm3ELNS_10ZeroPolicyE0EE13prefaultPagesEv
FN:54,_ZN10BldgBlocks10MemoryPoolILm64ELm3ELNS_10ZeroPolicyE0EED2Ev
FN:267,_ZN10BldgBlocks10MemoryPoolILm64ELm3ELNS_10ZeroPolicyE0EE16deallocateMemoryEv
FN:64,_ZN10BldgBlocks10MemoryPoolILm64ELm3ELNS_10ZeroPolicyE0EE8allocateEv
FN:343,_ZNK10BldgBlocks10MemoryPoolILm64ELm3ELNS_10ZeroPolicyE0EE14indexToPayloadEj
FN:197,_ZNK10BldgBlocks10MemoryPoolILm64ELm3ELNS_10ZeroPolicyE0EE15allocatedBlocksEv
FN:200,_ZNK10BldgBlocks10MemoryPoolILm64ELm3ELNS_10ZeroPolicyE0EE10freeBlocksEv
FN:207,_ZNK10BldgBlocks10MemoryPoolILm64ELm3ELNS_10ZeroPolicyE0EE4fullEv
FN:206,_ZNK10BldgBlocks10MemoryPoolILm64ELm3ELNS_10ZeroPolicyE0EE5emptyEv
FN:117,_ZN10BldgBlocks10MemoryPoolILm64ELm3ELNS_10ZeroPolicyE0EE10deallocateEPv
FN:359,_ZNK10BldgBlocks10MemoryPoolILm64ELm3ELNS_10ZeroPolicyE0EE14isValidPointerEPv
FN:348,_ZNK10BldgBlocks10MemoryPoolILm64ELm3ELNS_10ZeroPolicyE0EE14payloadToIndexEPv
FN:44,_ZN10BldgBlocks10MemoryPoolILm512ELm10ELNS_10ZeroPolicyE0EEC2Ei
FN:242,_ZN10BldgBlocks10MemoryPoolILm512ELm10ELNS_10ZeroPolicyE0EE14allocateMemoryEv
FN:287,_ZN10BldgBlocks10MemoryPoolILm512ELm10ELNS_10ZeroPolicyE0EE18initializeFreeListEv
FN:307,_ZN10BldgBlocks10MemoryPoolILm512ELm10ELNS_10ZeroPolicyE0EE13prefaultPagesEv
FN:54,_ZN10BldgBlocks10MemoryPoolILm512ELm10ELNS_10ZeroPolicyE0EED2Ev
FN:267,_ZN10BldgBlocks10MemoryPoolILm512ELm10ELNS_10ZeroPolicyE0EE16deallocateMemoryEv
FN:64,_ZN10BldgBlocks10MemoryPoolILm512ELm10ELNS_10ZeroPolicyE0EE8allocateEv
FN:343,_ZNK10BldgBlocks10MemoryPoolILm512ELm10ELNS_10ZeroPolicyE0EE14indexToPayloadEj
FN:197,_ZNK10BldgBlocks10MemoryPoolILm512ELm10ELNS_10ZeroPolicyE0EE15allocatedBlocksEv
FN:117,_ZN10BldgBlocks10MemoryPoolILm512ELm10ELNS_10ZeroPolicyE0EE10deallocateEPv
FN:359,_ZNK10BldgBlocks10MemoryPoolILm512ELm10ELNS_10ZeroPolicyE0EE14isValidPointerEPv
FN:348,_ZNK10BldgBlocks10MemoryPoolILm512ELm10ELNS_10ZeroPolicyE0EE14payloadToIndexEPv
FN:44,_ZN10BldgBlocks10MemoryPoolILm256ELm20ELNS_10ZeroPolicyE0EEC2Ei
FN:242,_ZN10BldgBlocks10MemoryPoolILm256ELm20ELNS_10ZeroPolicyE0EE14allocateMemoryEv
FN:287,_ZN10BldgBlocks10MemoryPoolILm256ELm20ELNS_10ZeroPolicyE0EE18initializeFreeListEv
FN:307,_ZN10BldgBlocks10MemoryPoolILm256ELm20ELNS_10ZeroPolicyE0EE13prefaultPagesEv
FN:54,_ZN10BldgBlocks10MemoryPoolILm256ELm20ELNS_10ZeroPolicyE0EED2Ev
FN:267,_ZN10BldgBlocks10MemoryPoolILm256ELm20ELNS_10ZeroPolicyE0EE16deallocateMemoryEv
FN:171,_ZN10BldgBlocks10MemoryPoolILm256ELm20ELNS_10ZeroPolicyE0EE12allocateBulkEPPvm
FN:64,_ZN10BldgBlocks10MemoryPoolILm256ELm20ELNS_10ZeroPolicyE0EE8allocateEv
FN:343,_ZNK10BldgBlocks10MemoryPoolILm256ELm20ELNS_10ZeroPolicyE0EE14indexToPayloadEj
FN:197,_ZNK10BldgBlocks10MemoryPoolILm256ELm20ELNS_10ZeroPolicyE0EE15allocatedBlocksEv
FN:186,_ZN10BldgBlocks10MemoryPoolILm256ELm20ELNS_10ZeroPolicyE0EE14deallocateBulkEPPvm
FN:117,_ZN10BldgBlocks10MemoryPoolILm256ELm20ELNS_10ZeroPolicyE0EE10deallocateEPv
FN:359,_ZNK10BldgBlocks10MemoryPoolILm256ELm20ELNS_10ZeroPolicyE0EE14isValidPointerEPv
FN:348,_ZNK10BldgBlocks10MemoryPoolILm256ELm20ELNS_10ZeroPolicyE0EE14payloadToIndexEPv
FN:206,_ZNK10BldgBlocks10MemoryPoolILm256ELm20ELNS_10ZeroPolicyE0EE5emptyEv
FN:44,_ZN10BldgBlocks10MemoryPoolILm1024ELm1000ELNS_10ZeroPolicyE0EEC2Ei
FN:242,_ZN10BldgBlocks10MemoryPoolILm1024ELm1000ELNS_10ZeroPolicyE0EE14allocateMemoryEv
FN:287,_ZN10BldgBlocks10MemoryPoolILm1024ELm1000ELNS_10ZeroPolicyE0EE18initializeFreeListEv
FN:307,_ZN10BldgBlocks10MemoryPoolILm1024ELm1000ELNS_10ZeroPolicyE0EE13prefaultPagesEv
FN:54,_ZN10BldgBlocks10MemoryPoolILm1024ELm1000ELNS_10ZeroPolicyE0EED2Ev
FN:267,_ZN10BldgBlocks10MemoryPoolILm1024ELm1000ELNS_10ZeroPolicyE0EE16deallocateMemoryEv
FN:64,_ZN10BldgBlocks10MemoryPoolILm1024ELm1000ELNS_10ZeroPolicyE0EE8allocateEv
FN:343,_ZNK10BldgBlocks10MemoryPoolILm1024ELm1000ELNS_10ZeroPolicyE0EE14indexToPayloadEj
FN:117,_ZN10BldgBlocks10MemoryPoolILm1024ELm1000ELNS_10ZeroPolicyE0EE10deallocateEPv
FN:359,_ZNK10BldgBlocks10MemoryPoolILm1024ELm1000ELNS_10ZeroPolicyE0EE14isValidPointerEPv
FN:348,_ZNK10BldgBlocks10MemoryPoolILm1024ELm1000ELNS_10ZeroPolicyE0EE14payloadToIndexEPv
FN:44,_ZN10BldgBlocks10MemoryPoolILm512ELm4000ELNS_10ZeroPolicyE0EEC2Ei
FN:242,_ZN10BldgBlocks10MemoryPoolILm512ELm4000ELNS_10ZeroPolicyE0EE14allocateMemoryEv
FN:287,_ZN10BldgBlocks10MemoryPoolILm512ELm4000ELNS_10ZeroPolicyE0EE18initializeFreeListEv
FN:307,_ZN10BldgBlocks10MemoryPoolILm512ELm4000ELNS_10ZeroPolicyE0EE13prefaultPagesEv
FN:54,_ZN10BldgBlocks10MemoryPoolILm512ELm4000ELNS_10ZeroPolicyE0EED2Ev
FN:267,_ZN10BldgBlocks10MemoryPoolILm512ELm4000ELNS_10ZeroPolicyE0EE16deallocateMemoryEv
FN:197,_ZNK10BldgBlocks10MemoryPoolILm512ELm4000ELNS_10ZeroPolicyE0EE15allocatedBlocksEv
FN:206,_ZNK10BldgBlocks10MemoryPoolILm512ELm4000ELNS_10ZeroPolicyE0EE5emptyEv
FN:219,_ZNK10BldgBlocks10MemoryPoolILm512ELm4000ELNS_10ZeroPolicyE0EE7isValidEv
FN:474,_ZN10BldgBlocks17GlobalMemoryPools6ordersEv
FN:479,_ZN10BldgBlocks17GlobalMemoryPools6tradesEv
FN:484,_ZN10BldgBlocks17GlobalMemoryPools5ticksEv
FN:489,_ZN10BldgBlocks17GlobalMemoryPools8messagesEv
FN:242,_ZN10BldgBlocks10MemoryPoolILm64ELm1048576ELNS_10ZeroPolicyE0EE14allocateMemoryEv
FN:287,_ZN10BldgBlocks10MemoryPoolILm64ELm1048576ELNS_10ZeroPolicyE0EE18initializeFreeListEv
FN:307,_ZN10BldgBlocks10MemoryPoolILm64ELm1048576ELNS_10ZeroPolicyE0EE13prefaultPagesEv
FN:267,_ZN10BldgBlocks10MemoryPoolILm64ELm1048576ELNS_10ZeroPolicyE0EE16deallocateMemoryEv
FN:242,_ZN10BldgBlocks10MemoryPoolILm64ELm524288ELNS_10ZeroPolicyE0EE14allocateMemoryEv
FN:287,_ZN10BldgBlocks10MemoryPoolILm64ELm524288ELNS_10ZeroPolicyE0EE18initializeFreeListEv
FN:307,_ZN10BldgBlocks10MemoryPoolILm64ELm524288ELNS_10ZeroPolicyE0EE13prefaultPagesEv
FN:267,_ZN10BldgBlocks10MemoryPoolILm64ELm524288ELNS_10ZeroPolicyE0EE16deallocateMemoryEv
FN:242,_ZN10BldgBlocks10MemoryPoolILm64ELm2097152ELNS_10ZeroPolicyE0EE14allocateMemoryEv
FN:287,_ZN10BldgBlocks10MemoryPoolILm64ELm2097152ELNS_10ZeroPolicyE0EE18initializeFreeListEv
FN:307,_ZN10BldgBlocks10MemoryPoolILm64ELm2097152ELNS_10ZeroPolicyE0EE13prefaultPagesEv
FN:267,_ZN10BldgBlocks10MemoryPoolILm64ELm2097152ELNS_10ZeroPolicyE0EE16deallocateMemoryEv
FN:242,_ZN10BldgBlocks10MemoryPoolILm256ELm65536ELNS_10ZeroPolicyE0EE14allocateMemoryEv
FN:287,_ZN10BldgBlocks10MemoryPoolILm256ELm65536ELNS_10ZeroPolicyE0EE18initializeFreeListEv
FN:307,_ZN10BldgBlocks10MemoryPoolILm256ELm65536ELNS_10ZeroPolicyE0EE13prefaultPagesEv
FN:267,_ZN10BldgBlocks10MemoryPoolILm256ELm65536ELNS_10ZeroPolicyE0EE16deallocateMemoryEv
FN:238,_ZN10BldgBlocks10MemoryPoolILm128ELm10ELNS_10ZeroPolicyE0EE9getPolicyEv
FN:44,_ZN10BldgBlocks10MemoryPoolILm128ELm10ELNS_10ZeroPolicyE0EEC2Ei
FN:242,_ZN10BldgBlocks10MemoryPoolILm128ELm10ELNS_10ZeroPolicyE0EE14allocateMemoryEv
FN:287,_ZN10BldgBlocks10MemoryPoolILm128ELm10ELNS_10ZeroPolicyE0EE18initializeFreeListEv
FN:307,_ZN10BldgBlocks10MemoryPoolILm128ELm10ELNS_10ZeroPolicyE0EE13prefaultPagesEv
FN:54,_ZN10BldgBlocks10MemoryPoolILm128ELm10ELNS_10ZeroPolicyE0EED2Ev
FN:267,_ZN10BldgBlocks10MemoryPoolILm128ELm10ELNS_10ZeroPolicyE0EE16deallocateMemoryEv
FN:64,_ZN10BldgBlocks10MemoryPoolILm128ELm10ELNS_10ZeroPolicyE0EE8allocateEv
FN:343,_ZNK10BldgBlocks10MemoryPoolILm128ELm10ELNS_10ZeroPolicyE0EE14indexToPayloadEj
FN:117,_ZN10BldgBlocks10MemoryPoolILm128ELm10ELNS_10ZeroPolicyE0EE10deallocateEPv
FN:359,_ZNK10BldgBlocks10MemoryPoolILm128ELm10ELNS_10ZeroPolicyE0EE14isValidPointerEPv
FN:348,_ZNK10BldgBlocks10MemoryPoolILm128ELm10ELNS_10ZeroPolicyE0EE14payloadToIndexEPv
FN:44,_ZN10BldgBlocks10MemoryPoolILm128ELm10ELNS_10ZeroPolicyE1EEC2Ei
FN:242,_ZN10BldgBlocks10MemoryPoolILm128ELm10ELNS_10ZeroPolicyE1EE14allocateMemoryEv
FN:287,_ZN10BldgBlocks10MemoryPoolILm128ELm10ELNS_10ZeroPolicyE1EE18initializeFreeListEv
FN:307,_ZN10BldgBlocks10MemoryPoolILm128ELm10ELNS_10ZeroPolicyE1EE13prefaultPagesEv
FN:54,_ZN10BldgBlocks10MemoryPoolILm128ELm10ELNS_10ZeroPolicyE1EED2Ev
FN:267,_ZN10BldgBlocks10MemoryPoolILm128ELm10ELNS_10ZeroPolicyE1EE16deallocateMemoryEv
FN:64,_ZN10BldgBlocks10MemoryPoolILm128ELm10ELNS_10ZeroPolicyE1EE8allocateEv
FN:343,_ZNK10BldgBlocks10MemoryPoolILm128ELm10ELNS_10ZeroPolicyE1EE14indexToPayloadEj
FN:377,_ZN10BldgBlocks10MemoryPoolILm128ELm10ELNS_10ZeroPolicyE1EE10clearBlockEPv
FN:117,_ZN10BldgBlocks10MemoryPoolILm128ELm10ELNS_10ZeroPolicyE1EE10deallocateEPv
FN:359,_ZNK10BldgBlocks10MemoryPoolILm128ELm10ELNS_10ZeroPolicyE1EE14isValidPointerEPv
FN:348,_ZNK10BldgBlocks10MemoryPoolILm128ELm10ELNS_10ZeroPolicyE1EE14payloadToIndexEPv
FN:44,_ZN10BldgBlocks10MemoryPoolILm128ELm10ELNS_10ZeroPolicyE2EEC2Ei
FN:242,_ZN10BldgBlocks10MemoryPoolILm128ELm10ELNS_10ZeroPolicyE2EE14allocateMemoryEv
FN:287,_ZN10BldgBlocks10MemoryPoolILm128ELm10ELNS_10ZeroPolicyE2EE18initializeFreeListEv
FN:307,_ZN10BldgBlocks10MemoryPoolILm128ELm10ELNS_10ZeroPolicyE2EE13prefaultPagesEv
FN:54,_ZN10BldgBlocks10MemoryPoolILm128ELm10ELNS_10ZeroPolicyE2EED2Ev
FN:267,_ZN10BldgBlocks10MemoryPoolILm128ELm10ELNS_10ZeroPolicyE2EE16deallocateMemoryEv
FN:64,_ZN10BldgBlocks10MemoryPoolILm128ELm10ELNS_10ZeroPolicyE2EE8allocateEv
FN:343,_ZNK10BldgBlocks10MemoryPoolILm128ELm10ELNS_10ZeroPolicyE2EE14indexToPayloadEj
FN:117,_ZN10BldgBlocks10MemoryPoolILm128ELm10ELNS_10ZeroPolicyE2EE10deallocateEPv
FN:359,_ZNK10BldgBlocks10MemoryPoolILm128ELm10ELNS_10ZeroPolicyE2EE14isValidPointerEPv
FN:377,_ZN10BldgBlocks10MemoryPoolILm128ELm10ELNS_10ZeroPolicyE2EE10clearBlockEPv
FN:348,_ZNK10BldgBlocks10MemoryPoolILm128ELm10ELNS_10ZeroPolicyE2EE14payloadToIndexEPv
FN:210,_ZN10BldgBlocks10MemoryPoolILm128ELm10ELNS_10ZeroPolicyE0EE15allocate_zeroedEv
FN:377,_ZN10BldgBlocks10MemoryPoolILm128ELm10ELNS_10ZeroPolicyE0EE10clearBlockEPv
FN:210,_ZN10BldgBlocks10MemoryPoolILm128ELm10ELNS_10ZeroPolicyE1EE15allocate_zeroedEv
FN:232,_ZNK10BldgBlocks10MemoryPoolILm128ELm10ELNS_10ZeroPolicyE0EE11isAllocatedEPv
FN:44,_ZN10BldgBlocks10MemoryPoolILm256ELm1000ELNS_10ZeroPolicyE0EEC2Ei
FN:242,_ZN10BldgBlocks10MemoryPoolILm256ELm1000ELNS_10ZeroPolicyE0EE14allocateMemoryEv
FN:287,_ZN10BldgBlocks10MemoryPoolILm256ELm1000ELNS_10ZeroPolicyE0EE18initializeFreeListEv
FN:307,_ZN10BldgBlocks10MemoryPoolILm256ELm1000ELNS_10ZeroPolicyE0EE13prefaultPagesEv
FN:54,_ZN10BldgBlocks10MemoryPoolILm256ELm1000ELNS_10ZeroPolicyE0EED2Ev
FN:267,_ZN10BldgBlocks10MemoryPoolILm256ELm1000ELNS_10ZeroPolicyE0EE16deallocateMemoryEv
FN:64,_ZN10BldgBlocks10MemoryPoolILm256ELm1000ELNS_10ZeroPolicyE0EE8allocateEv
FN:343,_ZNK10BldgBlocks10MemoryPoolILm256ELm1000ELNS_10ZeroPolicyE0EE14indexToPayloadEj
FN:117,_ZN10BldgBlocks10MemoryPoolILm256ELm1000ELNS_10ZeroPolicyE0EE10deallocateEPv
FN:359,_ZNK10BldgBlocks10MemoryPoolILm256ELm1000ELNS_10ZeroPolicyE0EE14isValidPointerEPv
FN:348,_ZNK10BldgBlocks10MemoryPoolILm256ELm1000ELNS_10ZeroPolicyE0EE14payloadToIndexEPv
FN:44,_ZN10BldgBlocks10MemoryPoolILm256ELm1000ELNS_10ZeroPolicyE1EEC2Ei
FN:242,_ZN10BldgBlocks10MemoryPoolILm256ELm1000ELNS_10ZeroPolicyE1EE14allocateMemoryEv
FN:287,_ZN10BldgBlocks10MemoryPoolILm256ELm1000ELNS_10ZeroPolicyE1EE18initializeFreeListEv
FN:307,_ZN10BldgBlocks10MemoryPoolILm256ELm1000ELNS_10ZeroPolicyE1EE13prefaultPagesEv
FN:54,_ZN10BldgBlocks10MemoryPoolILm256ELm1000ELNS_10ZeroPolicyE1EED2Ev
FN:267,_ZN10BldgBlocks10MemoryPoolILm256ELm1000ELNS_10ZeroPolicyE1EE16deallocateMemoryEv
FN:64,_ZN10BldgBlocks10MemoryPoolILm256ELm1000ELNS_10ZeroPolicyE1EE8allocateEv
FN:343,_ZNK10BldgBlocks10MemoryPoolILm256ELm1000ELNS_10ZeroPolicyE1EE14indexToPayloadEj
FN:377,_ZN10BldgBlocks10MemoryPoolILm256ELm1000ELNS_10ZeroPolicyE1EE10clearBlockEPv
FN:117,_ZN10BldgBlocks10MemoryPoolILm256ELm1000ELNS_10ZeroPolicyE1EE10deallocateEPv
FN:359,_ZNK10BldgBlocks10MemoryPoolILm256ELm1000ELNS_10ZeroPolicyE1EE14isValidPointerEPv
FN:348,_ZNK10BldgBlocks10MemoryPoolILm256ELm1000ELNS_10ZeroPolicyE1EE14payloadToIndexEPv
FN:44,_ZN10BldgBlocks10MemoryPoolILm256ELm1000ELNS_10ZeroPolicyE2EEC2Ei
FN:242,_ZN10BldgBlocks10MemoryPoolILm256ELm1000ELNS_10ZeroPolicyE2EE14allocateMemoryEv
FN:287,_ZN10BldgBlocks10MemoryPoolILm256ELm1000ELNS_10ZeroPolicyE2EE18initializeFreeListEv
FN:307,_ZN10BldgBlocks10MemoryPoolILm256ELm1000ELNS_10ZeroPolicyE2EE13prefaultPagesEv
FN:54,_ZN10BldgBlocks10MemoryPoolILm256ELm1000ELNS_10ZeroPolicyE2EED2Ev
FN:267,_ZN10BldgBlocks10MemoryPoolILm256ELm1000ELNS_10ZeroPolicyE2EE16deallocateMemoryEv
FN:64,_ZN10BldgBlocks10MemoryPoolILm256ELm1000ELNS_10ZeroPolicyE2EE8allocateEv
FN:343,_ZNK10BldgBlocks10MemoryPoolILm256ELm1000ELNS_10ZeroPolicyE2EE14indexToPayloadEj
FN:117,_ZN10BldgBlocks10MemoryPoolILm256ELm1000ELNS_10ZeroPolicyE2EE10deallocateEPv
FN:359,_ZNK10BldgBlocks10MemoryPoolILm256ELm1000ELNS_10ZeroPolicyE2EE14isValidPointerEPv
FN:377,_ZN10BldgBlocks10MemoryPoolILm256ELm1000ELNS_10ZeroPolicyE2EE10clearBlockEPv
FN:348,_ZNK10BldgBlocks10MemoryPoolILm256ELm1000ELNS_10ZeroPolicyE2EE14payloadToIndexEPv
FNDA:7529,_ZN10BldgBlocks10MemoryPoolILm512ELm4000ELNS_10ZeroPolicyE0EE8allocateEv
FNDA:8000,_ZNK10BldgBlocks10MemoryPoolILm512ELm4000ELNS_10ZeroPolicyE0EE14indexToPayloadEj
FNDA:7896,_ZN10BldgBlocks10MemoryPoolILm512ELm4000ELNS_10ZeroPolicyE0EE10deallocateEPv
FNDA:7862,_ZNK10BldgBlocks10MemoryPoolILm512ELm4000ELNS_10ZeroPolicyE0EE14isValidPointerEPv
FNDA:7823,_ZNK10BldgBlocks10MemoryPoolILm512ELm4000ELNS_10ZeroPolicyE0EE14payloadToIndexEPv
FNDA:2,_ZN10BldgBlocks10MemoryPoolILm1024ELm100ELNS_10ZeroPolicyE0EEC2Ei
FNDA:2,_ZN10BldgBlocks10MemoryPoolILm1024ELm100ELNS_10ZeroPolicyE0EE14allocateMemoryEv
FNDA:2,_ZN10BldgBlocks10MemoryPoolILm1024ELm100ELNS_10ZeroPolicyE0EE18initializeFreeListEv
FNDA:2,_ZN10BldgBlocks10MemoryPoolILm1024ELm100ELNS_10ZeroPolicyE0EE13prefaultPagesEv
FNDA:2,_ZN10BldgBlocks10MemoryPoolILm1024ELm100ELNS_10ZeroPolicyE0EED2Ev
FNDA:2,_ZN10BldgBlocks10MemoryPoolILm1024ELm100ELNS_10ZeroPolicyE0EE16deallocateMemoryEv
FNDA:20,_ZNK10BldgBlocks10MemoryPoolILm1024ELm100ELNS_10ZeroPolicyE0EE15allocatedBlocksEv
FNDA:4,_ZNK10BldgBlocks10MemoryPoolILm1024ELm100ELNS_10ZeroPolicyE0EE10freeBlocksEv
FNDA:4,_ZNK10BldgBlocks10MemoryPoolILm1024ELm100ELNS_10ZeroPolicyE0EE4fullEv
FNDA:4,_ZNK10BldgBlocks10MemoryPoolILm1024ELm100ELNS_10ZeroPolicyE0EE5emptyEv
FNDA:2,_ZNK10BldgBlocks10MemoryPoolILm1024ELm100ELNS_10ZeroPolicyE0EE7isValidEv
FNDA:4,_ZN10BldgBlocks10MemoryPoolILm1024ELm100ELNS_10ZeroPolicyE0EE8allocateEv
FNDA:4,_ZNK10BldgBlocks10MemoryPoolILm1024ELm100ELNS_10ZeroPolicyE0EE14indexToPayloadEj
FNDA:2,_ZNK10BldgBlocks10MemoryPoolILm1024ELm100ELNS_10ZeroPolicyE0EE11totalBlocksEv
FNDA:2,_ZNK10BldgBlocks10MemoryPoolILm1024ELm100ELNS_10ZeroPolicyE0EE9blockSizeEv
FNDA:2,_ZNK10BldgBlocks10MemoryPoolILm1024ELm100ELNS_10ZeroPolicyE0EE11totalMemoryEv
FNDA:4,_ZN10BldgBlocks10MemoryPoolILm1024ELm100ELNS_10ZeroPolicyE0EE10deallocateEPv
FNDA:4,_ZNK10BldgBlocks10MemoryPoolILm1024ELm100ELNS_10ZeroPolicyE0EE14isValidPointerEPv
FNDA:4,_ZNK10BldgBlocks10MemoryPoolILm1024ELm100ELNS_10ZeroPolicyE0EE14payloadToIndexEPv
FNDA:2,_ZN10BldgBlocks10MemoryPoolILm64ELm3ELNS_10ZeroPolicyE0EEC2Ei
FNDA:2,_ZN10BldgBlocks10MemoryPoolILm64ELm3ELNS_10ZeroPolicyE0EE14allocateMemoryEv
FNDA:2,_ZN10BldgBlocks10MemoryPoolILm64ELm3ELNS_10ZeroPolicyE0EE18initializeFreeListEv
FNDA:2,_ZN10BldgBlocks10MemoryPoolILm64ELm3ELNS_10ZeroPolicyE0EE13prefaultPagesEv
FNDA:2,_ZN10BldgBlocks10MemoryPoolILm64ELm3ELNS_10ZeroPolicyE0EED2Ev
FNDA:2,_ZN10BldgBlocks10MemoryPoolILm64ELm3ELNS_10ZeroPolicyE0EE16deallocateMemoryEv
FNDA:10,_ZN10BldgBlocks10MemoryPoolILm64ELm3ELNS_10ZeroPolicyE0EE8allocateEv
FNDA:8,_ZNK10BldgBlocks10MemoryPoolILm64ELm3ELNS_10ZeroPolicyE0EE14indexToPayloadEj
FNDA:16,_ZNK10BldgBlocks10MemoryPoolILm64ELm3ELNS_10ZeroPolicyE0EE15allocatedBlocksEv
FNDA:4,_ZNK10BldgBlocks10MemoryPoolILm64ELm3ELNS_10ZeroPolicyE0EE10freeBlocksEv
FNDA:4,_ZNK10BldgBlocks10MemoryPoolILm64ELm3ELNS_10ZeroPolicyE0EE4fullEv
FNDA:2,_ZNK10BldgBlocks10MemoryPoolILm64ELm3ELNS_10ZeroPolicyE0EE5emptyEv
FNDA:8,_ZN10BldgBlocks10MemoryPoolILm64ELm3ELNS_10ZeroPolicyE0EE10deallocateEPv
FNDA:8,_ZNK10BldgBlocks10MemoryPoolILm64ELm3ELNS_10ZeroPolicyE0EE14isValidPointerEPv
FNDA:8,_ZNK10BldgBlocks10MemoryPoolILm64ELm3ELNS_10ZeroPolicyE0EE14payloadToIndexEPv
FNDA:2,_ZN10BldgBlocks10MemoryPoolILm512ELm10ELNS_10ZeroPolicyE0EEC2Ei
FNDA:2,_ZN10BldgBlocks10MemoryPoolILm512ELm10ELNS_10ZeroPolicyE0EE14allocateMemoryEv
FNDA:2,_ZN10BldgBlocks10MemoryPoolILm512ELm10ELNS_10ZeroPolicyE0EE18initializeFreeListEv
FNDA:2,_ZN10BldgBlocks10MemoryPoolILm512ELm10ELNS_10ZeroPolicyE0EE13prefaultPagesEv
FNDA:2,_ZN10BldgBlocks10MemoryPoolILm512ELm10ELNS_10ZeroPolicyE0EED2Ev
FNDA:2,_ZN10BldgBlocks10MemoryPoolILm512ELm10ELNS_10ZeroPolicyE0EE16deallocateMemoryEv
FNDA:2,_ZN10BldgBlocks10MemoryPoolILm512ELm10ELNS_10ZeroPolicyE0EE8allocateEv
FNDA:2,_ZNK10BldgBlocks10MemoryPoolILm512ELm10ELNS_10ZeroPolicyE0EE14indexToPayloadEj
FNDA:16,_ZNK10BldgBlocks10MemoryPoolILm512ELm10ELNS_10ZeroPolicyE0EE15allocatedBlocksEv
FNDA:8,_ZN10BldgBlocks10MemoryPoolILm512ELm10ELNS_10ZeroPolicyE0EE10deallocateEPv
FNDA:6,_ZNK10BldgBlocks10MemoryPoolILm512ELm10ELNS_10ZeroPolicyE0EE14isValidPointerEPv
FNDA:4,_ZNK10BldgBlocks10MemoryPoolILm512ELm10ELNS_10ZeroPolicyE0EE14payloadToIndexEPv
FNDA:2,_ZN10BldgBlocks10MemoryPoolILm256ELm20ELNS_10ZeroPolicyE0EEC2Ei
FNDA:2,_ZN10BldgBlocks10MemoryPoolILm256ELm20ELNS_10ZeroPolicyE0EE14allocateMemoryEv
FNDA:2,_ZN10BldgBlocks10MemoryPoolILm256ELm20ELNS_10ZeroPolicyE0EE18initializeFreeListEv
FNDA:2,_ZN10BldgBlocks10MemoryPoolILm256ELm20ELNS_10ZeroPolicyE0EE13prefaultPagesEv
FNDA:2,_ZN10BldgBlocks10MemoryPoolILm256ELm20ELNS_10ZeroPolicyE0EED2Ev
FNDA:2,_ZN10BldgBlocks10MemoryPoolILm256ELm20ELNS_10ZeroPolicyE0EE16deallocateMemoryEv
FNDA:2,_ZN10BldgBlocks10MemoryPoolILm256ELm20ELNS_10ZeroPolicyE0EE12allocateBulkEPPvm
FNDA:10,_ZN10BldgBlocks10MemoryPoolILm256ELm20ELNS_10ZeroPolicyE0EE8allocateEv
FNDA:10,_ZNK10BldgBlocks10MemoryPoolILm256ELm20ELNS_10ZeroPolicyE0EE14indexToPayloadEj
FNDA:6,_ZNK10BldgBlocks10MemoryPoolILm256ELm20ELNS_10ZeroPolicyE0EE15allocatedBlocksEv
FNDA:2,_ZN10BldgBlocks10MemoryPoolILm256ELm20ELNS_10ZeroPolicyE0EE14deallocateBulkEPPvm
FNDA:10,_ZN10BldgBlocks10MemoryPoolILm256ELm20ELNS_10ZeroPolicyE0EE10deallocateEPv
FNDA:10,_ZNK10BldgBlocks10MemoryPoolILm256ELm20ELNS_10ZeroPolicyE0EE14isValidPointerEPv
FNDA:10,_ZNK10BldgBlocks10MemoryPoolILm256ELm20ELNS_10ZeroPolicyE0EE14payloadToIndexEPv
FNDA:2,_ZNK10BldgBlocks10MemoryPoolILm256ELm20ELNS_10ZeroPolicyE0EE5emptyEv
FNDA:2,_ZN10BldgBlocks10MemoryPoolILm1024ELm1000ELNS_10ZeroPolicyE0EEC2Ei
FNDA:2,_ZN10BldgBlocks10MemoryPoolILm1024ELm1000ELNS_10ZeroPolicyE0EE14allocateMemoryEv
FNDA:2,_ZN10BldgBlocks10MemoryPoolILm1024ELm1000ELNS_10ZeroPolicyE0EE18initializeFreeListEv
FNDA:2,_ZN10BldgBlocks10MemoryPoolILm1024ELm1000ELNS_10ZeroPolicyE0EE13prefaultPagesEv
FNDA:2,_ZN10BldgBlocks10MemoryPoolILm1024ELm1000ELNS_10ZeroPolicyE0EED2Ev
FNDA:2,_ZN10BldgBlocks10MemoryPoolILm1024ELm1000ELNS_10ZeroPolicyE0EE16deallocateMemoryEv
FNDA:2000,_ZN10BldgBlocks10MemoryPoolILm1024ELm1000ELNS_10ZeroPolicyE0EE8allocateEv
FNDA:2000,_ZNK10BldgBlocks10MemoryPoolILm1024ELm1000ELNS_10ZeroPolicyE0EE14indexToPayloadEj
FNDA:2000,_ZN10BldgBlocks10MemoryPoolILm1024ELm1000ELNS_10ZeroPolicyE0EE10deallocateEPv
FNDA:2000,_ZNK10BldgBlocks10MemoryPoolILm1024ELm1000ELNS_10ZeroPolicyE0EE14isValidPointerEPv
FNDA:2000,_ZNK10BldgBlocks10MemoryPoolILm1024ELm1000ELNS_10ZeroPolicyE0EE14payloadToIndexEPv
FNDA:2,_ZN10BldgBlocks10MemoryPoolILm512ELm4000ELNS_10ZeroPolicyE0EEC2Ei
FNDA:2,_ZN10BldgBlocks10MemoryPoolILm512ELm4000ELNS_10ZeroPolicyE0EE14allocateMemoryEv
FNDA:2,_ZN10BldgBlocks10MemoryPoolILm512ELm4000ELNS_10ZeroPolicyE0EE18initializeFreeListEv
FNDA:2,_ZN10BldgBlocks10MemoryPoolILm512ELm4000ELNS_10ZeroPolicyE0EE13prefaultPagesEv
FNDA:2,_ZN10BldgBlocks10MemoryPoolILm512ELm4000ELNS_10ZeroPolicyE0EED2Ev
FNDA:2,_ZN10BldgBlocks10MemoryPoolILm512ELm4000ELNS_10ZeroPolicyE0EE16deallocateMemoryEv
FNDA:6,_ZNK10BldgBlocks10MemoryPoolILm512ELm4000ELNS_10ZeroPolicyE0EE15allocatedBlocksEv
FNDA:2,_ZNK10BldgBlocks10MemoryPoolILm512ELm4000ELNS_10ZeroPolicyE0EE5emptyEv
FNDA:2,_ZNK10BldgBlocks10MemoryPoolILm512ELm4000ELNS_10ZeroPolicyE0EE7isValidEv
FNDA:0,_ZN10BldgBlocks17GlobalMemoryPools6ordersEv
FNDA:0,_ZN10BldgBlocks17GlobalMemoryPools6tradesEv
FNDA:0,_ZN10BldgBlocks17GlobalMemoryPools5ticksEv
FNDA:0,_ZN10BldgBlocks17GlobalMemoryPools8messagesEv
FNDA:0,_ZN10BldgBlocks10MemoryPoolILm64ELm1048576ELNS_10ZeroPolicyE0EE14allocateMemoryEv
FNDA:0,_ZN10BldgBlocks10MemoryPoolILm64ELm1048576ELNS_10ZeroPolicyE0EE18initializeFreeListEv
FNDA:0,_ZN10BldgBlocks10MemoryPoolILm64ELm1048576ELNS_10ZeroPolicyE0EE13prefaultPagesEv
FNDA:0,_ZN10BldgBlocks10MemoryPoolILm64ELm1048576ELNS_10ZeroPolicyE0EE16deallocateMemoryEv
FNDA:0,_ZN10BldgBlocks10MemoryPoolILm64ELm524288ELNS_10ZeroPolicyE0EE14allocateMemoryEv
FNDA:0,_ZN10BldgBlocks10MemoryPoolILm64ELm524288ELNS_10ZeroPolicyE0EE18initializeFreeListEv
FNDA:0,_ZN10BldgBlocks10MemoryPoolILm64ELm524288ELNS_10ZeroPolicyE0EE13prefaultPagesEv
FNDA:0,_ZN10BldgBlocks10MemoryPoolILm64ELm524288ELNS_10ZeroPolicyE0EE16deallocateMemoryEv
FNDA:0,_ZN10BldgBlocks10MemoryPoolILm64ELm2097152ELNS_10ZeroPolicyE0EE14allocateMemoryEv
FNDA:0,_ZN10BldgBlocks10MemoryPoolILm64ELm2097152ELNS_10ZeroPolicyE0EE18initializeFreeListEv
FNDA:0,_ZN10BldgBlocks10MemoryPoolILm64ELm2097152ELNS_10ZeroPolicyE0EE13prefaultPagesEv
FNDA:0,_ZN10BldgBlocks10MemoryPoolILm64ELm2097152ELNS_10ZeroPolicyE0EE16deallocateMemoryEv
FNDA:0,_ZN10BldgBlocks10MemoryPoolILm256ELm65536ELNS_10ZeroPolicyE0EE14allocateMemoryEv
FNDA:0,_ZN10BldgBlocks10MemoryPoolILm256ELm65536ELNS_10ZeroPolicyE0EE18initializeFreeListEv
FNDA:0,_ZN10BldgBlocks10MemoryPoolILm256ELm65536ELNS_10ZeroPolicyE0EE13prefaultPagesEv
FNDA:0,_ZN10BldgBlocks10MemoryPoolILm256ELm65536ELNS_10ZeroPolicyE0EE16deallocateMemoryEv
FNDA:2,_ZN10BldgBlocks10MemoryPoolILm128ELm10ELNS_10ZeroPolicyE0EE9getPolicyEv
FNDA:8,_ZN10BldgBlocks10MemoryPoolILm128ELm10ELNS_10ZeroPolicyE0EEC2Ei
FNDA:8,_ZN10BldgBlocks10MemoryPoolILm128ELm10ELNS_10ZeroPolicyE0EE14allocateMemoryEv
FNDA:8,_ZN10BldgBlocks10MemoryPoolILm128ELm10ELNS_10ZeroPolicyE0EE18initializeFreeListEv
FNDA:8,_ZN10BldgBlocks10MemoryPoolILm128ELm10ELNS_10ZeroPolicyE0EE13prefaultPagesEv
FNDA:8,_ZN10BldgBlocks10MemoryPoolILm128ELm10ELNS_10ZeroPolicyE0EED2Ev
FNDA:8,_ZN10BldgBlocks10MemoryPoolILm128ELm10ELNS_10ZeroPolicyE0EE16deallocateMemoryEv
FNDA:14,_ZN10BldgBlocks10MemoryPoolILm128ELm10ELNS_10ZeroPolicyE0EE8allocateEv
FNDA:14,_ZNK10BldgBlocks10MemoryPoolILm128ELm10ELNS_10ZeroPolicyE0EE14indexToPayloadEj
FNDA:14,_ZN10BldgBlocks10MemoryPoolILm128ELm10ELNS_10ZeroPolicyE0EE10deallocateEPv
FNDA:14,_ZNK10BldgBlocks10MemoryPoolILm128ELm10ELNS_10ZeroPolicyE0EE14isValidPointerEPv
FNDA:18,_ZNK10BldgBlocks10MemoryPoolILm128ELm10ELNS_10ZeroPolicyE0EE14payloadToIndexEPv
FNDA:4,_ZN10BldgBlocks10MemoryPoolILm128ELm10ELNS_10ZeroPolicyE1EEC2Ei
FNDA:4,_ZN10BldgBlocks10MemoryPoolILm128ELm10ELNS_10ZeroPolicyE1EE14allocateMemoryEv
FNDA:4,_ZN10BldgBlocks10MemoryPoolILm128ELm10ELNS_10ZeroPolicyE1EE18initializeFreeListEv
FNDA:4,_ZN10BldgBlocks10MemoryPoolILm128ELm10ELNS_10ZeroPolicyE1EE13prefaultPagesEv
FNDA:4,_ZN10BldgBlocks10MemoryPoolILm128ELm10ELNS_10ZeroPolicyE1EED2Ev
FNDA:4,_ZN10BldgBlocks10MemoryPoolILm128ELm10ELNS_10ZeroPolicyE1EE16deallocateMemoryEv
FNDA:6,_ZN10BldgBlocks10MemoryPoolILm128ELm10ELNS_10ZeroPolicyE1EE8allocateEv
FNDA:6,_ZNK10BldgBlocks10MemoryPoolILm128ELm10ELNS_10ZeroPolicyE1EE14indexToPayloadEj
FNDA:6,_ZN10BldgBlocks10MemoryPoolILm128ELm10ELNS_10ZeroPolicyE1EE10clearBlockEPv
FNDA:6,_ZN10BldgBlocks10MemoryPoolILm128ELm10ELNS_10ZeroPolicyE1EE10deallocateEPv
FNDA:6,_ZNK10BldgBlocks10MemoryPoolILm128ELm10ELNS_10ZeroPolicyE1EE14isValidPointerEPv
FNDA:6,_ZNK10BldgBlocks10MemoryPoolILm128ELm10ELNS_10ZeroPolicyE1EE14payloadToIndexEPv
FNDA:2,_ZN10BldgBlocks10MemoryPoolILm128ELm10ELNS_10ZeroPolicyE2EEC2Ei
FNDA:2,_ZN10BldgBlocks10MemoryPoolILm128ELm10ELNS_10ZeroPolicyE2EE14allocateMemoryEv
FNDA:2,_ZN10BldgBlocks10MemoryPoolILm128ELm10ELNS_10ZeroPolicyE2EE18initializeFreeListEv
FNDA:2,_ZN10BldgBlocks10MemoryPoolILm128ELm10ELNS_10ZeroPolicyE2EE13prefaultPagesEv
FNDA:2,_ZN10BldgBlocks10MemoryPoolILm128ELm10ELNS_10ZeroPolicyE2EED2Ev
FNDA:2,_ZN10BldgBlocks10MemoryPoolILm128ELm10ELNS_10ZeroPolicyE2EE16deallocateMemoryEv
FNDA:4,_ZN10BldgBlocks10MemoryPoolILm128ELm10ELNS_10ZeroPolicyE2EE8allocateEv
FNDA:4,_ZNK10BldgBlocks10MemoryPoolILm128ELm10ELNS_10ZeroPolicyE2EE14indexToPayloadEj
FNDA:4,_ZN10BldgBlocks10MemoryPoolILm128ELm10ELNS_10ZeroPolicyE2EE10deallocateEPv
FNDA:4,_ZNK10BldgBlocks10MemoryPoolILm128ELm10ELNS_10ZeroPolicyE2EE14isValidPointerEPv
FNDA:4,_ZN10BldgBlocks10MemoryPoolILm128ELm10ELNS_10ZeroPolicyE2EE10clearBlockEPv
FNDA:4,_ZNK10BldgBlocks10MemoryPoolILm128ELm10ELNS_10ZeroPolicyE2EE14payloadToIndexEPv
FNDA:4,_ZN10BldgBlocks10MemoryPoolILm128ELm10ELNS_10ZeroPolicyE0EE15allocate_zeroedEv
FNDA:4,_ZN10BldgBlocks10MemoryPoolILm128ELm10ELNS_10ZeroPolicyE0EE10clearBlockEPv
FNDA:2,_ZN10BldgBlocks10MemoryPoolILm128ELm10ELNS_10ZeroPolicyE1EE15allocate_zeroedEv
FNDA:4,_ZNK10BldgBlocks10MemoryPoolILm128ELm10ELNS_10ZeroPolicyE0EE11isAllocatedEPv
FNDA:2,_ZN10BldgBlocks10MemoryPoolILm256ELm1000ELNS_10ZeroPolicyE0EEC2Ei
FNDA:2,_ZN10BldgBlocks10MemoryPoolILm256ELm1000ELNS_10ZeroPolicyE0EE14allocateMemoryEv
FNDA:2,_ZN10BldgBlocks10MemoryPoolILm256ELm1000ELNS_10ZeroPolicyE0EE18initializeFreeListEv
FNDA:2,_ZN10BldgBlocks10MemoryPoolILm256ELm1000ELNS_10ZeroPolicyE0EE13prefaultPagesEv
FNDA:2,_ZN10BldgBlocks10MemoryPoolILm256ELm1000ELNS_10ZeroPolicyE0EED2Ev
FNDA:2,_ZN10BldgBlocks10MemoryPoolILm256ELm1000ELNS_10ZeroPolicyE0EE16deallocateMemoryEv
FNDA:200000,_ZN10BldgBlocks10MemoryPoolILm256ELm1000ELNS_10ZeroPolicyE0EE8allocateEv
FNDA:200000,_ZNK10BldgBlocks10MemoryPoolILm256ELm1000ELNS_10ZeroPolicyE0EE14indexToPayloadEj
FNDA:200000,_ZN10BldgBlocks10MemoryPoolILm256ELm1000ELNS_10ZeroPolicyE0EE10deallocateEPv
FNDA:200000,_ZNK10BldgBlocks10MemoryPoolILm256ELm1000ELNS_10ZeroPolicyE0EE14isValidPointerEPv
FNDA:200000,_ZNK10BldgBlocks10MemoryPoolILm256ELm1000ELNS_10ZeroPolicyE0EE14payloadToIndexEPv
FNDA:2,_ZN10BldgBlocks10MemoryPoolILm256ELm1000ELNS_10ZeroPolicyE1EEC2Ei
FNDA:2,_ZN10BldgBlocks10MemoryPoolILm256ELm1000ELNS_10ZeroPolicyE1EE14allocateMemoryEv
FNDA:2,_ZN10BldgBlocks10MemoryPoolILm256ELm1000ELNS_10ZeroPolicyE1EE18initializeFreeListEv
FNDA:2,_ZN10BldgBlocks10MemoryPoolILm256ELm1000ELNS_10ZeroPolicyE1EE13prefaultPagesEv
FNDA:2,_ZN10BldgBlocks10MemoryPoolILm256ELm1000ELNS_10ZeroPolicyE1EED2Ev
FNDA:2,_ZN10BldgBlocks10MemoryPoolILm256ELm1000ELNS_10ZeroPolicyE1EE16deallocateMemoryEv
FNDA:200000,_ZN10BldgBlocks10MemoryPoolILm256ELm1000ELNS_10ZeroPolicyE1EE8allocateEv
FNDA:200000,_ZNK10BldgBlocks10MemoryPoolILm256ELm1000ELNS_10ZeroPolicyE1EE14indexToPayloadEj
FNDA:200000,_ZN10BldgBlocks10MemoryPoolILm256ELm1000ELNS_10ZeroPolicyE1EE10clearBlockEPv
FNDA:200000,_ZN10BldgBlocks10MemoryPoolILm256ELm1000ELNS_10ZeroPolicyE1EE10deallocateEPv
FNDA:200000,_ZNK10BldgBlocks10MemoryPoolILm256ELm1000ELNS_10ZeroPolicyE1EE14isValidPointerEPv
FNDA:200000,_ZNK10BldgBlocks10MemoryPoolILm256ELm1000ELNS_10ZeroPolicyE1EE14payloadToIndexEPv
FNDA:2,_ZN10BldgBlocks10MemoryPoolILm256ELm1000ELNS_10ZeroPolicyE2EEC2Ei
FNDA:2,_ZN10BldgBlocks10MemoryPoolILm256ELm1000ELNS_10ZeroPolicyE2EE14allocateMemoryEv
FNDA:2,_ZN10BldgBlocks10MemoryPoolILm256ELm1000ELNS_10ZeroPolicyE2EE18initializeFreeListEv
FNDA:2,_ZN10BldgBlocks10MemoryPoolILm256ELm1000ELNS_10ZeroPolicyE2EE13prefaultPagesEv
FNDA:2,_ZN10BldgBlocks10MemoryPoolILm256ELm1000ELNS_10ZeroPolicyE2EED2Ev
FNDA:2,_ZN10BldgBlocks10MemoryPoolILm256ELm1000ELNS_10ZeroPolicyE2EE16deallocateMemoryEv
FNDA:200000,_ZN10BldgBlocks10MemoryPoolILm256ELm1000ELNS_10ZeroPolicyE2EE8allocateEv
FNDA:200000,_ZNK10BldgBlocks10MemoryPoolILm256ELm1000ELNS_10ZeroPolicyE2EE14indexToPayloadEj
FNDA:200000,_ZN10BldgBlocks10MemoryPoolILm256ELm1000ELNS_10ZeroPolicyE2EE10deallocateEPv
FNDA:200000,_ZNK10BldgBlocks10MemoryPoolILm256ELm1000ELNS_10ZeroPolicyE2EE14isValidPointerEPv
FNDA:200000,_ZN10BldgBlocks10MemoryPoolILm256ELm1000ELNS_10ZeroPolicyE2EE10clearBlockEPv
FNDA:200000,_ZNK10BldgBlocks10MemoryPoolILm256ELm1000ELNS_10ZeroPolicyE2EE14payloadToIndexEPv
FNF:29
FNH:25
DA:44,32
DA:45,32
DA:46,32
DA:47,32
DA:49,32
DA:50,32
DA:51,32
DA:52,32
DA:54,32
DA:55,32
DA:56,32
DA:64,609579
DA:65,609579
DA:68,609579
DA:69,624217
DA:71,99617
DA:72,84979
DA:73,84979
DA:79,84979
DA:80,14638
DA:81,14638
DA:84,609579
DA:85,609579
DA:86,610048
DA:87,610048
DA:90,610048
DA:91,610048
DA:92,610048
DA:93,610048
DA:94,610048
DA:95,610048
DA:98,0
DA:99,0
DA:100,610048
DA:101,609579
DA:104,609579
DA:107,609579
DA:108,200006
DA:109,200006
DA:110,200006
DA:111,200006
DA:113,609579
DA:114,609579
DA:117,609950
DA:118,609950
DA:119,4
DA:120,4
DA:123,609946
DA:124,200004
DA:125,200004
DA:128,609946
DA:129,609946
DA:130,0
DA:131,0
DA:133,609946
DA:136,609946
DA:137,609946
DA:139,2
DA:140,2
DA:143,641722
DA:144,31778
DA:145,31778
DA:151,31778
DA:154,609944
DA:155,609944
DA:156,609944
DA:157,609944
DA:160,609944
DA:161,610048
DA:162,610048
DA:163,610048
DA:164,609944
DA:167,609944
DA:168,609944
DA:171,2
DA:172,2
DA:174,12
DA:175,10
DA:176,10
DA:177,0
DA:178,0
DA:179,10
DA:180,10
DA:182,2
DA:183,2
DA:186,2
DA:187,12
DA:188,10
DA:189,10
DA:190,10
DA:191,10
DA:192,10
DA:193,2
DA:196,2
DA:197,64
DA:198,64
DA:199,64
DA:200,8
DA:201,8
DA:202,8
DA:203,2
DA:204,2
DA:206,10
DA:207,8
DA:210,6
DA:211,6
DA:212,6
DA:213,4
DA:214,4
DA:215,6
DA:216,6
DA:219,4
DA:220,4
DA:221,4
DA:222,4
DA:223,4
DA:232,4
DA:233,4
DA:234,4
DA:235,4
DA:236,4
DA:238,2
DA:242,32
DA:244,32
DA:245,32
DA:247,32
DA:249,32
DA:250,32
DA:251,0
DA:252,0
DA:254,32
DA:255,32
DA:256,0
DA:257,0
DA:258,32
DA:260,0
DA:261,0
DA:262,0
DA:264,32
DA:265,32
DA:267,32
DA:268,32
DA:269,32
DA:270,32
DA:271,32
DA:272,0
DA:273,0
DA:274,32
DA:275,32
DA:277,32
DA:278,32
DA:279,32
DA:280,32
DA:281,0
DA:282,0
DA:283,32
DA:284,32
DA:285,32
DA:287,32
DA:289,16438
DA:290,16406
DA:293,16406
DA:296,16406
DA:297,16374
DA:298,16374
DA:299,32
DA:300,32
DA:301,16406
DA:304,32
DA:305,32
DA:307,32
DA:309,32
DA:312,32
DA:313,32
DA:314,310
DA:315,278
DA:316,278
DA:317,278
DA:318,246
DA:319,246
DA:323,246
DA:324,278
DA:327,32
DA:328,32
DA:329,1984
DA:330,1952
DA:331,1952
DA:332,1952
DA:333,1920
DA:334,1920
DA:338,1920
DA:339,1952
DA:340,32
DA:343,610048
DA:344,610048
DA:345,610048
DA:346,610048
DA:348,609877
DA:349,609877
DA:350,609877
DA:351,609877
DA:352,609877
DA:353,609877
DA:354,0
DA:355,0
DA:356,609877
DA:357,609877
DA:359,609914
DA:361,609914
DA:363,609914
DA:364,609914
DA:365,609914
DA:368,609914
DA:369,2
DA:370,2
DA:373,609912
DA:374,609912
DA:375,609914
DA:377,400014
DA:394,400014
DA:395,400014
DA:396,400014
DA:474,0
DA:475,0
DA:476,0
DA:477,0
DA:479,0
DA:480,0
DA:481,0
DA:482,0
DA:484,0
DA:485,0
DA:486,0
DA:487,0
DA:489,0
DA:490,0
DA:491,0
DA:492,0
BRDA:45,0,0,2
BRDA:45,0,1,0
BRDA:45,1,2,2
BRDA:45,1,3,0
BRDA:45,2,4,2
BRDA:45,2,5,0
BRDA:45,3,6,4
BRDA:45,3,7,0
BRDA:45,4,8,2
BRDA:45,4,9,0
BRDA:45,5,10,8
BRDA:45,5,11,0
BRDA:45,6,12,2
BRDA:45,6,13,0
BRDA:45,7,14,2
BRDA:45,7,15,0
BRDA:45,8,16,2
BRDA:45,8,17,0
BRDA:45,9,18,2
BRDA:45,9,19,0
BRDA:45,10,20,2
BRDA:45,10,21,0
BRDA:45,11,22,2
BRDA:45,11,23,0
BRDA:45,12,24,2
BRDA:45,12,25,0
BRDA:45,13,26,2
BRDA:45,13,27,0
BRDA:45,14,28,2
BRDA:45,14,29,0
BRDA:45,15,30,2
BRDA:45,15,31,0
BRDA:45,16,32,2
BRDA:45,16,33,0
BRDA:45,17,34,2
BRDA:45,17,35,0
BRDA:45,18,36,4
BRDA:45,18,37,0
BRDA:45,19,38,2
BRDA:45,19,39,0
BRDA:45,20,40,8
BRDA:45,20,41,0
BRDA:45,21,42,2
BRDA:45,21,43,0
BRDA:45,22,44,2
BRDA:45,22,45,0
BRDA:45,23,46,2
BRDA:45,23,47,0
BRDA:69,0,0,0
BRDA:69,0,1,4
BRDA:69,1,2,0
BRDA:69,1,3,6
BRDA:69,2,4,0
BRDA:69,2,5,200000
BRDA:69,3,6,0
BRDA:69,3,7,10
BRDA:69,4,8,0
BRDA:69,4,9,2000
BRDA:69,5,10,0
BRDA:69,5,11,200000
BRDA:69,6,12,0
BRDA:69,6,13,200000
BRDA:69,7,14,0
BRDA:69,7,15,14
BRDA:69,8,16,0
BRDA:69,8,17,4
BRDA:69,9,18,0
BRDA:69,9,19,2
BRDA:69,10,20,0
BRDA:69,10,21,10
BRDA:69,11,22,14638
BRDA:69,11,23,7529
BRDA:71,0,0,-
BRDA:71,0,1,-
BRDA:71,1,2,-
BRDA:71,1,3,-
BRDA:71,2,4,-
BRDA:71,2,5,-
BRDA:71,3,6,-
BRDA:71,3,7,-
BRDA:71,4,8,-
BRDA:71,4,9,-
BRDA:71,5,10,-
BRDA:71,5,11,-
BRDA:71,6,12,-
BRDA:71,6,13,-
BRDA:71,7,14,-
BRDA:71,7,15,-
BRDA:71,8,16,84979
BRDA:71,8,17,14638
BRDA:71,9,18,-
BRDA:71,9,19,-
BRDA:71,10,20,-
BRDA:71,10,21,-
BRDA:71,11,22,-
BRDA:71,11,23,-
BRDA:86,0,0,14
BRDA:86,0,1,0
BRDA:86,1,2,200000
BRDA:86,1,3,0
BRDA:86,2,4,2
BRDA:86,2,5,0
BRDA:86,3,6,10
BRDA:86,3,7,0
BRDA:86,4,8,4
BRDA:86,4,9,0
BRDA:86,5,10,2000
BRDA:86,5,11,0
BRDA:86,6,12,6
BRDA:86,6,13,0
BRDA:86,7,14,200000
BRDA:86,7,15,0
BRDA:86,8,16,4
BRDA:86,8,17,0
BRDA:86,9,18,8000
BRDA:86,9,19,4294966825
BRDA:86,10,20,8
BRDA:86,10,21,2
BRDA:86,11,22,200000
BRDA:86,11,23,0
BRDA:91,0,0,4
BRDA:91,0,1,0
BRDA:91,1,2,8
BRDA:91,1,3,0
BRDA:91,2,4,6
BRDA:91,2,5,0
BRDA:91,3,6,200000
BRDA:91,3,7,0
BRDA:91,4,8,2000
BRDA:91,4,9,0
BRDA:91,5,10,10
BRDA:91,5,11,0
BRDA:91,6,12,4
BRDA:91,6,13,0
BRDA:91,7,14,200000
BRDA:91,7,15,0
BRDA:91,8,16,8000
BRDA:91,8,17,0
BRDA:91,9,18,14
BRDA:91,9,19,0
BRDA:91,10,20,2
BRDA:91,10,21,0
BRDA:91,11,22,200000
BRDA:91,11,23,0
BRDA:108,0,0,200000
BRDA:108,0,1,0
BRDA:108,1,2,6
BRDA:108,1,3,0
BRDA:118,0,0,0
BRDA:118,0,1,4
BRDA:118,1,2,0
BRDA:118,1,3,200000
BRDA:118,2,4,0
BRDA:118,2,5,200000
BRDA:118,3,6,0
BRDA:118,3,7,6
BRDA:118,4,8,0
BRDA:118,4,9,200000
BRDA:118,5,10,0
BRDA:118,5,11,14
BRDA:118,6,12,0
BRDA:118,6,13,2000
BRDA:118,7,14,0
BRDA:118,7,15,10
BRDA:118,8,16,4
BRDA:118,8,17,4
BRDA:118,9,18,0
BRDA:118,9,19,7896
BRDA:118,10,20,0
BRDA:118,10,21,4
BRDA:118,11,22,0
BRDA:118,11,23,8
BRDA:118,12,24,0
BRDA:118,12,25,200000
BRDA:118,13,26,0
BRDA:118,13,27,200000
BRDA:118,14,28,0
BRDA:118,14,29,200000
BRDA:118,15,30,0
BRDA:118,15,31,200000
BRDA:118,16,32,0
BRDA:118,16,33,10
BRDA:118,17,34,0
BRDA:118,17,35,4
BRDA:118,18,36,0
BRDA:118,18,37,4
BRDA:118,19,38,0
BRDA:118,19,39,8
BRDA:118,20,40,39
BRDA:118,20,41,7837
BRDA:118,21,42,20
BRDA:118,21,43,7876
BRDA:118,22,44,0
BRDA:118,22,45,8
BRDA:118,23,46,2
BRDA:118,23,47,6
BRDA:118,24,48,2
BRDA:118,24,49,4
BRDA:118,25,50,0
BRDA:118,25,51,10
BRDA:118,26,52,0
BRDA:118,26,53,200000
BRDA:118,27,54,0
BRDA:118,27,55,2000
BRDA:118,28,56,0
BRDA:118,28,57,2000
BRDA:118,29,58,0
BRDA:118,29,59,14
BRDA:118,30,60,0
BRDA:118,30,61,14
BRDA:118,31,62,0
BRDA:118,31,63,6
BRDA:118,32,64,0
BRDA:118,32,65,6
BRDA:118,33,66,0
BRDA:118,33,67,4
BRDA:118,34,68,0
BRDA:118,34,69,4
BRDA:118,35,70,0
BRDA:118,35,71,200000
BRDA:129,0,0,0
BRDA:129,0,1,10
BRDA:129,1,2,0
BRDA:129,1,3,4
BRDA:129,2,4,0
BRDA:129,2,5,200000
BRDA:129,3,6,0
BRDA:129,3,7,2000
BRDA:129,4,8,0
BRDA:129,4,9,6
BRDA:129,5,10,0
BRDA:129,5,11,7896
BRDA:129,6,12,0
BRDA:129,6,13,14
BRDA:129,7,14,0
BRDA:129,7,15,4
BRDA:129,8,16,0
BRDA:129,8,17,200000
BRDA:129,9,18,0
BRDA:129,9,19,4
BRDA:129,10,20,0
BRDA:129,10,21,8
BRDA:129,11,22,0
BRDA:129,11,23,200000
BRDA:137,0,0,0
BRDA:137,0,1,200000
BRDA:137,1,2,0
BRDA:137,1,3,4
BRDA:137,2,4,0
BRDA:137,2,5,10
BRDA:137,3,6,0
BRDA:137,3,7,200000
BRDA:137,4,8,0
BRDA:137,4,9,2000
BRDA:137,5,10,0
BRDA:137,5,11,8
BRDA:137,6,12,0
BRDA:137,6,13,4
BRDA:137,7,14,0
BRDA:137,7,15,6
BRDA:137,8,16,2
BRDA:137,8,17,2
BRDA:137,9,18,0
BRDA:137,9,19,14
BRDA:137,10,20,0
BRDA:137,10,21,200000
BRDA:137,11,22,0
BRDA:137,11,23,7896
BRDA:143,0,0,0
BRDA:143,0,1,8
BRDA:143,1,2,0
BRDA:143,1,3,200000
BRDA:143,2,4,0
BRDA:143,2,5,200000
BRDA:143,3,6,0
BRDA:143,3,7,10
BRDA:143,4,8,0
BRDA:143,4,9,6
BRDA:143,5,10,0
BRDA:143,5,11,200000
BRDA:143,6,12,0
BRDA:143,6,13,14
BRDA:143,7,14,0
BRDA:143,7,15,2000
BRDA:143,8,16,0
BRDA:143,8,17,4
BRDA:143,9,18,0
BRDA:143,9,19,4
BRDA:143,10,20,0
BRDA:143,10,21,2
BRDA:143,11,22,31778
BRDA:143,11,23,7896
BRDA:161,0,0,200000
BRDA:161,0,1,0
BRDA:161,1,2,6
BRDA:161,1,3,0
BRDA:161,2,4,200000
BRDA:161,2,5,0
BRDA:161,3,6,2
BRDA:161,3,7,0
BRDA:161,4,8,8000
BRDA:161,4,9,4294967192
BRDA:161,5,10,14
BRDA:161,5,11,0
BRDA:161,6,12,4
BRDA:161,6,13,0
BRDA:161,7,14,4
BRDA:161,7,15,0
BRDA:161,8,16,2000
BRDA:161,8,17,0
BRDA:161,9,18,200000
BRDA:161,9,19,0
BRDA:161,10,20,8
BRDA:161,10,21,0
BRDA:161,11,22,10
BRDA:161,11,23,0
BRDA:174,0,0,10
BRDA:174,0,1,2
BRDA:176,0,0,0
BRDA:176,0,1,10
BRDA:187,0,0,10
BRDA:187,0,1,2
BRDA:188,0,0,10
BRDA:188,0,1,0
BRDA:212,0,0,2
BRDA:212,0,1,0
BRDA:212,1,2,4
BRDA:212,1,3,0
BRDA:220,0,0,2
BRDA:220,0,1,0
BRDA:220,1,2,2
BRDA:220,1,3,0
BRDA:221,0,0,2
BRDA:221,0,1,0
BRDA:221,1,2,2
BRDA:221,1,3,0
BRDA:222,0,0,2
BRDA:222,0,1,0
BRDA:222,1,2,2
BRDA:222,1,3,0
BRDA:234,0,0,0
BRDA:234,0,1,4
BRDA:247,0,0,2
BRDA:247,0,1,0
BRDA:247,1,2,2
BRDA:247,1,3,0
BRDA:247,2,4,2
BRDA:247,2,5,0
BRDA:247,3,6,2
BRDA:247,3,7,0
BRDA:247,4,8,2
BRDA:247,4,9,0
BRDA:247,5,10,2
BRDA:247,5,11,0
BRDA:247,6,12,8
BRDA:247,6,13,0
BRDA:247,7,14,2
BRDA:247,7,15,0
BRDA:247,8,16,2
BRDA:247,8,17,0
BRDA:247,9,18,4
BRDA:247,9,19,0
BRDA:247,10,20,2
BRDA:247,10,21,0
BRDA:247,11,22,2
BRDA:247,11,23,0
BRDA:247,12,24,2
BRDA:247,12,25,0
BRDA:247,13,26,4
BRDA:247,13,27,0
BRDA:247,14,28,8
BRDA:247,14,29,0
BRDA:247,15,30,2
BRDA:247,15,31,0
BRDA:247,16,32,2
BRDA:247,16,33,0
BRDA:247,17,34,2
BRDA:247,17,35,0
BRDA:247,18,36,2
BRDA:247,18,37,0
BRDA:247,19,38,2
BRDA:247,19,39,0
BRDA:247,20,40,2
BRDA:247,20,41,0
BRDA:247,21,42,2
BRDA:247,21,43,0
BRDA:247,22,44,2
BRDA:247,22,45,0
BRDA:247,23,46,2
BRDA:247,23,47,0
BRDA:250,0,0,0
BRDA:250,0,1,2
BRDA:250,1,2,0
BRDA:250,1,3,2
BRDA:250,2,4,0
BRDA:250,2,5,2
BRDA:250,3,6,0
BRDA:250,3,7,4
BRDA:250,4,8,0
BRDA:250,4,9,8
BRDA:250,5,10,0
BRDA:250,5,11,2
BRDA:250,6,12,0
BRDA:250,6,13,2
BRDA:250,7,14,0
BRDA:250,7,15,2
BRDA:250,8,16,0
BRDA:250,8,17,2
BRDA:250,9,18,0
BRDA:250,9,19,2
BRDA:250,10,20,0
BRDA:250,10,21,2
BRDA:250,11,22,0
BRDA:250,11,23,2
BRDA:255,0,0,0
BRDA:255,0,1,8
BRDA:255,1,2,0
BRDA:255,1,3,2
BRDA:255,2,4,0
BRDA:255,2,5,2
BRDA:255,3,6,0
BRDA:255,3,7,4
BRDA:255,4,8,0
BRDA:255,4,9,2
BRDA:255,5,10,0
BRDA:255,5,11,2
BRDA:255,6,12,0
BRDA:255,6,13,2
BRDA:255,7,14,0
BRDA:255,7,15,2
BRDA:255,8,16,0
BRDA:255,8,17,2
BRDA:255,9,18,0
BRDA:255,9,19,2
BRDA:255,10,20,0
BRDA:255,10,21,2
BRDA:255,11,22,0
BRDA:255,11,23,2
BRDA:264,0,0,8
BRDA:264,0,1,0
BRDA:264,1,2,2
BRDA:264,1,3,0
BRDA:264,2,4,2
BRDA:264,2,5,0
BRDA:264,3,6,2
BRDA:264,3,7,0
BRDA:264,4,8,4
BRDA:264,4,9,0
BRDA:264,5,10,2
BRDA:264,5,11,0
BRDA:264,6,12,2
BRDA:264,6,13,0
BRDA:264,7,14,2
BRDA:264,7,15,0
BRDA:264,8,16,2
BRDA:264,8,17,0
BRDA:264,9,18,2
BRDA:264,9,19,0
BRDA:264,10,20,2
BRDA:264,10,21,0
BRDA:264,11,22,2
BRDA:264,11,23,0
BRDA:264,12,24,2
BRDA:264,12,25,0
BRDA:264,13,26,2
BRDA:264,13,27,0
BRDA:264,14,28,4
BRDA:264,14,29,0
BRDA:264,15,30,2
BRDA:264,15,31,0
BRDA:264,16,32,2
BRDA:264,16,33,0
BRDA:264,17,34,2
BRDA:264,17,35,0
BRDA:264,18,36,8
BRDA:264,18,37,0
BRDA:264,19,38,2
BRDA:264,19,39,0
BRDA:264,20,40,2
BRDA:264,20,41,0
BRDA:264,21,42,2
BRDA:264,21,43,0
BRDA:264,22,44,2
BRDA:264,22,45,0
BRDA:264,23,46,2
BRDA:264,23,47,0
BRDA:268,0,0,4
BRDA:268,0,1,0
BRDA:268,1,2,2
BRDA:268,1,3,0
BRDA:268,2,4,2
BRDA:268,2,5,0
BRDA:268,3,6,2
BRDA:268,3,7,0
BRDA:268,4,8,2
BRDA:268,4,9,0
BRDA:268,5,10,2
BRDA:268,5,11,0
BRDA:268,6,12,2
BRDA:268,6,13,0
BRDA:268,7,14,2
BRDA:268,7,15,0
BRDA:268,8,16,2
BRDA:268,8,17,0
BRDA:268,9,18,2
BRDA:268,9,19,0
BRDA:268,10,20,8
BRDA:268,10,21,0
BRDA:268,11,22,2
BRDA:268,11,23,0
BRDA:269,0,0,2
BRDA:269,0,1,0
BRDA:269,1,2,2
BRDA:269,1,3,0
BRDA:269,2,4,8
BRDA:269,2,5,0
BRDA:269,3,6,2
BRDA:269,3,7,0
BRDA:269,4,8,2
BRDA:269,4,9,0
BRDA:269,5,10,2
BRDA:269,5,11,0
BRDA:269,6,12,2
BRDA:269,6,13,0
BRDA:269,7,14,2
BRDA:269,7,15,0
BRDA:269,8,16,2
BRDA:269,8,17,0
BRDA:269,9,18,2
BRDA:269,9,19,0
BRDA:269,10,20,4
BRDA:269,10,21,0
BRDA:269,11,22,2
BRDA:269,11,23,0
BRDA:269,12,24,4
BRDA:269,12,25,0
BRDA:269,13,26,2
BRDA:269,13,27,0
BRDA:269,14,28,2
BRDA:269,14,29,0
BRDA:269,15,30,2
BRDA:269,15,31,0
BRDA:269,16,32,2
BRDA:269,16,33,0
BRDA:269,17,34,2
BRDA:269,17,35,0
BRDA:269,18,36,2
BRDA:269,18,37,0
BRDA:269,19,38,2
BRDA:269,19,39,0
BRDA:269,20,40,2
BRDA:269,20,41,0
BRDA:269,21,42,8
BRDA:269,21,43,0
BRDA:269,22,44,2
BRDA:269,22,45,0
BRDA:269,23,46,2
BRDA:269,23,47,0
BRDA:277,0,0,2
BRDA:277,0,1,0
BRDA:277,1,2,4
BRDA:277,1,3,0
BRDA:277,2,4,2
BRDA:277,2,5,0
BRDA:277,3,6,2
BRDA:277,3,7,0
BRDA:277,4,8,2
BRDA:277,4,9,0
BRDA:277,5,10,2
BRDA:277,5,11,0
BRDA:277,6,12,8
BRDA:277,6,13,0
BRDA:277,7,14,2
BRDA:277,7,15,0
BRDA:277,8,16,2
BRDA:277,8,17,0
BRDA:277,9,18,2
BRDA:277,9,19,0
BRDA:277,10,20,2
BRDA:277,10,21,0
BRDA:277,11,22,2
BRDA:277,11,23,0
BRDA:278,0,0,2
BRDA:278,0,1,0
BRDA:278,1,2,2
BRDA:278,1,3,0
BRDA:278,2,4,2
BRDA:278,2,5,0
BRDA:278,3,6,2
BRDA:278,3,7,0
BRDA:278,4,8,2
BRDA:278,4,9,0
BRDA:278,5,10,2
BRDA:278,5,11,0
BRDA:278,6,12,2
BRDA:278,6,13,0
BRDA:278,7,14,8
BRDA:278,7,15,0
BRDA:278,8,16,2
BRDA:278,8,17,0
BRDA:278,9,18,2
BRDA:278,9,19,0
BRDA:278,10,20,2
BRDA:278,10,21,0
BRDA:278,11,22,4
BRDA:278,11,23,0
BRDA:278,12,24,2
BRDA:278,12,25,0
BRDA:278,13,26,2
BRDA:278,13,27,0
BRDA:278,14,28,2
BRDA:278,14,29,0
BRDA:278,15,30,2
BRDA:278,15,31,0
BRDA:278,16,32,2
BRDA:278,16,33,0
BRDA:278,17,34,2
BRDA:278,17,35,0
BRDA:278,18,36,2
BRDA:278,18,37,0
BRDA:278,19,38,2
BRDA:278,19,39,0
BRDA:278,20,40,8
BRDA:278,20,41,0
BRDA:278,21,42,4
BRDA:278,21,43,0
BRDA:278,22,44,2
BRDA:278,22,45,0
BRDA:278,23,46,2
BRDA:278,23,47,0
BRDA:289,0,0,200
BRDA:289,0,1,2
BRDA:289,1,2,6
BRDA:289,1,3,2
BRDA:289,2,4,2000
BRDA:289,2,5,2
BRDA:289,3,6,8000
BRDA:289,3,7,2
BRDA:289,4,8,2000
BRDA:289,4,9,2
BRDA:289,5,10,20
BRDA:289,5,11,2
BRDA:289,6,12,2000
BRDA:289,6,13,2
BRDA:289,7,14,40
BRDA:289,7,15,2
BRDA:289,8,16,80
BRDA:289,8,17,8
BRDA:289,9,18,20
BRDA:289,9,19,2
BRDA:289,10,20,40
BRDA:289,10,21,4
BRDA:289,11,22,2000
BRDA:289,11,23,2
BRDA:296,0,0,1998
BRDA:296,0,1,2
BRDA:296,1,2,36
BRDA:296,1,3,4
BRDA:296,2,4,1998
BRDA:296,2,5,2
BRDA:296,3,6,4
BRDA:296,3,7,2
BRDA:296,4,8,198
BRDA:296,4,9,2
BRDA:296,5,10,1998
BRDA:296,5,11,2
BRDA:296,6,12,18
BRDA:296,6,13,2
BRDA:296,7,14,1998
BRDA:296,7,15,2
BRDA:296,8,16,18
BRDA:296,8,17,2
BRDA:296,9,18,72
BRDA:296,9,19,8
BRDA:296,10,20,7998
BRDA:296,10,21,2
BRDA:296,11,22,38
BRDA:296,11,23,2
BRDA:314,0,0,126
BRDA:314,0,1,2
BRDA:314,1,2,4
BRDA:314,1,3,2
BRDA:314,2,4,2
BRDA:314,2,5,2
BRDA:314,3,6,8
BRDA:314,3,7,8
BRDA:314,4,8,32
BRDA:314,4,9,2
BRDA:314,5,10,2
BRDA:314,5,11,2
BRDA:314,6,12,32
BRDA:314,6,13,2
BRDA:314,7,14,32
BRDA:314,7,15,2
BRDA:314,8,16,2
BRDA:314,8,17,2
BRDA:314,9,18,2
BRDA:314,9,19,2
BRDA:314,10,20,4
BRDA:314,10,21,4
BRDA:314,11,22,32
BRDA:314,11,23,2
BRDA:317,0,0,0
BRDA:317,0,1,4
BRDA:317,1,2,0
BRDA:317,1,3,2
BRDA:317,2,4,0
BRDA:317,2,5,2
BRDA:317,3,6,2
BRDA:317,3,7,2
BRDA:317,4,8,30
BRDA:317,4,9,2
BRDA:317,5,10,30
BRDA:317,5,11,2
BRDA:317,6,12,0
BRDA:317,6,13,2
BRDA:317,7,14,30
BRDA:317,7,15,2
BRDA:317,8,16,30
BRDA:317,8,17,2
BRDA:317,9,18,0
BRDA:317,9,19,8
BRDA:317,10,20,124
BRDA:317,10,21,2
BRDA:317,11,22,0
BRDA:317,11,23,2
BRDA:329,0,0,126
BRDA:329,0,1,2
BRDA:329,1,2,4
BRDA:329,1,3,2
BRDA:329,2,4,4
BRDA:329,2,5,4
BRDA:329,3,6,4
BRDA:329,3,7,2
BRDA:329,4,8,126
BRDA:329,4,9,2
BRDA:329,5,10,50
BRDA:329,5,11,2
BRDA:329,6,12,500
BRDA:329,6,13,2
BRDA:329,7,14,126
BRDA:329,7,15,2
BRDA:329,8,16,1000
BRDA:329,8,17,2
BRDA:329,9,18,2
BRDA:329,9,19,2
BRDA:329,10,20,8
BRDA:329,10,21,8
BRDA:329,11,22,2
BRDA:329,11,23,2
BRDA:332,0,0,124
BRDA:332,0,1,2
BRDA:332,1,2,0
BRDA:332,1,3,4
BRDA:332,2,4,124
BRDA:332,2,5,2
BRDA:332,3,6,124
BRDA:332,3,7,2
BRDA:332,4,8,0
BRDA:332,4,9,8
BRDA:332,5,10,0
BRDA:332,5,11,2
BRDA:332,6,12,2
BRDA:332,6,13,2
BRDA:332,7,14,0
BRDA:332,7,15,2
BRDA:332,8,16,998
BRDA:332,8,17,2
BRDA:332,9,18,48
BRDA:332,9,19,2
BRDA:332,10,20,498
BRDA:332,10,21,2
BRDA:332,11,22,2
BRDA:332,11,23,2
BRDA:344,0,0,0
BRDA:344,0,1,4
BRDA:344,1,2,0
BRDA:344,1,3,200000
BRDA:344,2,4,0
BRDA:344,2,5,200000
BRDA:344,3,6,0
BRDA:344,3,7,8000
BRDA:344,4,8,0
BRDA:344,4,9,14
BRDA:344,5,10,0
BRDA:344,5,11,2
BRDA:344,6,12,0
BRDA:344,6,13,10
BRDA:344,7,14,0
BRDA:344,7,15,2000
BRDA:344,8,16,0
BRDA:344,8,17,8
BRDA:344,9,18,0
BRDA:344,9,19,6
BRDA:344,10,20,0
BRDA:344,10,21,4
BRDA:344,11,22,0
BRDA:344,11,23,200000
BRDA:349,0,0,0
BRDA:349,0,1,200000
BRDA:349,1,2,0
BRDA:349,1,3,200000
BRDA:349,2,4,0
BRDA:349,2,5,6
BRDA:349,3,6,0
BRDA:349,3,7,10
BRDA:349,4,8,0
BRDA:349,4,9,4
BRDA:349,5,10,0
BRDA:349,5,11,4
BRDA:349,6,12,0
BRDA:349,6,13,2000
BRDA:349,7,14,0
BRDA:349,7,15,200000
BRDA:349,8,16,0
BRDA:349,8,17,18
BRDA:349,9,18,0
BRDA:349,9,19,7823
BRDA:349,10,20,0
BRDA:349,10,21,8
BRDA:349,11,22,0
BRDA:349,11,23,4
BRDA:353,0,0,0
BRDA:353,0,1,18
BRDA:353,1,2,0
BRDA:353,1,3,2000
BRDA:353,2,4,0
BRDA:353,2,5,10
BRDA:353,3,6,0
BRDA:353,3,7,8
BRDA:353,4,8,0
BRDA:353,4,9,200000
BRDA:353,5,10,0
BRDA:353,5,11,200000
BRDA:353,6,12,0
BRDA:353,6,13,6
BRDA:353,7,14,0
BRDA:353,7,15,4
BRDA:353,8,16,0
BRDA:353,8,17,4
BRDA:353,9,18,0
BRDA:353,9,19,4
BRDA:353,10,20,1
BRDA:353,10,21,7822
BRDA:353,11,22,0
BRDA:353,11,23,200000
BRDA:353,12,24,0
BRDA:353,12,25,6
BRDA:353,13,26,0
BRDA:353,13,27,4
BRDA:353,14,28,0
BRDA:353,14,29,200000
BRDA:353,15,30,0
BRDA:353,15,31,200000
BRDA:353,16,32,0
BRDA:353,16,33,8
BRDA:353,17,34,0
BRDA:353,17,35,2000
BRDA:353,18,36,0
BRDA:353,18,37,18
BRDA:353,19,38,0
BRDA:353,19,39,200000
BRDA:353,20,40,0
BRDA:353,20,41,4
BRDA:353,21,42,0
BRDA:353,21,43,10
BRDA:353,22,44,4294967294
BRDA:353,22,45,7824
BRDA:353,23,46,0
BRDA:353,23,47,4
BRDA:361,0,0,2
BRDA:361,0,1,7860
BRDA:361,1,2,0
BRDA:361,1,3,2000
BRDA:361,2,4,0
BRDA:361,2,5,6
BRDA:361,3,6,0
BRDA:361,3,7,10
BRDA:361,4,8,0
BRDA:361,4,9,200000
BRDA:361,5,10,0
BRDA:361,5,11,200000
BRDA:361,6,12,0
BRDA:361,6,13,200000
BRDA:361,7,14,0
BRDA:361,7,15,8
BRDA:361,8,16,0
BRDA:361,8,17,14
BRDA:361,9,18,0
BRDA:361,9,19,4
BRDA:361,10,20,0
BRDA:361,10,21,4
BRDA:361,11,22,0
BRDA:361,11,23,6
BRDA:361,12,24,0
BRDA:361,12,25,200000
BRDA:361,13,26,0
BRDA:361,13,27,200000
BRDA:361,14,28,0
BRDA:361,14,29,6
BRDA:361,15,30,0
BRDA:361,15,31,200000
BRDA:361,16,32,1
BRDA:361,16,33,7859
BRDA:361,17,34,0
BRDA:361,17,35,4
BRDA:361,18,36,0
BRDA:361,18,37,10
BRDA:361,19,38,0
BRDA:361,19,39,6
BRDA:361,20,40,0
BRDA:361,20,41,2000
BRDA:361,21,42,0
BRDA:361,21,43,4
BRDA:361,22,44,0
BRDA:361,22,45,8
BRDA:361,23,46,0
BRDA:361,23,47,14
BRDA:368,0,0,0
BRDA:368,0,1,200000
BRDA:368,1,2,2
BRDA:368,1,3,7860
BRDA:368,2,4,0
BRDA:368,2,5,200000
BRDA:368,3,6,0
BRDA:368,3,7,8
BRDA:368,4,8,0
BRDA:368,4,9,4
BRDA:368,5,10,0
BRDA:368,5,11,2000
BRDA:368,6,12,0
BRDA:368,6,13,4
BRDA:368,7,14,0
BRDA:368,7,15,14
BRDA:368,8,16,0
BRDA:368,8,17,10
BRDA:368,9,18,2
BRDA:368,9,19,4
BRDA:368,10,20,0
BRDA:368,10,21,6
BRDA:368,11,22,0
BRDA:368,11,23,200000
BRDA:368,12,24,0
BRDA:368,12,25,4
BRDA:368,13,26,0
BRDA:368,13,27,200000
BRDA:368,14,28,0
BRDA:368,14,29,8
BRDA:368,15,30,0
BRDA:368,15,31,4
BRDA:368,16,32,0
BRDA:368,16,33,7860
BRDA:368,17,34,0
BRDA:368,17,35,200000
BRDA:368,18,36,0
BRDA:368,18,37,4
BRDA:368,19,38,0
BRDA:368,19,39,14
BRDA:368,20,40,0
BRDA:368,20,41,10
BRDA:368,21,42,0
BRDA:368,21,43,6
BRDA:368,22,44,0
BRDA:368,22,45,200000
BRDA:368,23,46,0
BRDA:368,23,47,2000
BRF:98
BRH:68
LF:263
LH:192
end_of_record
SF:/home/isoula/om/shriven_zenith/bldg_blocks/time_utils.h
FN:24,_ZN10BldgBlocks5rdtscEv
FN:51,_ZN10BldgBlocks8TscTimerC2Ev
FN:54,_ZN10BldgBlocks8TscTimer5startEv
FN:59,_ZNK10BldgBlocks8TscTimer12elapsedNanosEv
FN:64,_ZNK10BldgBlocks8TscTimer13elapsedMicrosEv
FN:69,_ZNK10BldgBlocks8TscTimer10tscToNanosEm
FN:75,_ZN10BldgBlocks8TscTimer18calibrateFrequencyEv
FN:96,_ZN10BldgBlocks8PtpClock15getHardwareTimeEv
FN:103,_ZN10BldgBlocks8PtpClock4syncEv
FN:112,_ZN10BldgBlocks12FastDateTime11formatNanosEmPc
FN:131,_ZN10BldgBlocks12FastDateTime9formatFIXEmPc
FN:152,_ZN10BldgBlocks14LatencyTracker6recordEm
FN:170,_ZNK10BldgBlocks14LatencyTracker3minEv
FN:171,_ZNK10BldgBlocks14LatencyTracker3maxEv
FN:172,_ZNK10BldgBlocks14LatencyTracker3avgEv
FN:173,_ZNK10BldgBlocks14LatencyTracker3p50Ev
FN:174,_ZNK10BldgBlocks14LatencyTracker3p99Ev
FN:175,_ZNK10BldgBlocks14LatencyTracker4p999Ev
FN:176,_ZNK10BldgBlocks14LatencyTracker5countEv
FN:178,_ZN10BldgBlocks14LatencyTracker5resetEv
FN:13,_ZN10BldgBlocks17getCurrentTimeStrEPNSt7__cxx1112basic_stringIcSt11char_traitsIcESaIcEEE
FN:29,_ZN10BldgBlocks6rdtscpEv
FN:35,_ZN10BldgBlocks18getNanosSinceEpochEv
FN:42,_ZN10BldgBlocks17getWallClockNanosEv
FNDA:36492,_ZN10BldgBlocks5rdtscEv
FNDA:0,_ZN10BldgBlocks8TscTimerC2Ev
FNDA:0,_ZN10BldgBlocks8TscTimer5startEv
FNDA:0,_ZNK10BldgBlocks8TscTimer12elapsedNanosEv
FNDA:0,_ZNK10BldgBlocks8TscTimer13elapsedMicrosEv
FNDA:0,_ZNK10BldgBlocks8TscTimer10tscToNanosEm
FNDA:0,_ZN10BldgBlocks8TscTimer18calibrateFrequencyEv
FNDA:0,_ZN10BldgBlocks8PtpClock15getHardwareTimeEv
FNDA:0,_ZN10BldgBlocks8PtpClock4syncEv
FNDA:0,_ZN10BldgBlocks12FastDateTime11formatNanosEmPc
FNDA:0,_ZN10BldgBlocks12FastDateTime9formatFIXEmPc
FNDA:0,_ZN10BldgBlocks14LatencyTracker6recordEm
FNDA:0,_ZNK10BldgBlocks14LatencyTracker3minEv
FNDA:0,_ZNK10BldgBlocks14LatencyTracker3maxEv
FNDA:0,_ZNK10BldgBlocks14LatencyTracker3avgEv
FNDA:0,_ZNK10BldgBlocks14LatencyTracker3p50Ev
FNDA:0,_ZNK10BldgBlocks14LatencyTracker3p99Ev
FNDA:0,_ZNK10BldgBlocks14LatencyTracker4p999Ev
FNDA:0,_ZNK10BldgBlocks14LatencyTracker5countEv
FNDA:0,_ZN10BldgBlocks14LatencyTracker5resetEv
FNDA:0,_ZN10BldgBlocks17getCurrentTimeStrEPNSt7__cxx1112basic_stringIcSt11char_traitsIcESaIcEEE
FNDA:0,_ZN10BldgBlocks6rdtscpEv
FNDA:0,_ZN10BldgBlocks18getNanosSinceEpochEv
FNDA:0,_ZN10BldgBlocks17getWallClockNanosEv
FNF:24
FNH:1
DA:13,0
DA:14,0
DA:15,0
DA:16,0
DA:17,0
DA:18,0
DA:19,0
DA:24,36492
DA:25,36492
DA:26,36492
DA:29,0
DA:30,0
DA:31,0
DA:32,0
DA:35,0
DA:36,0
DA:37,0
DA:38,0
DA:39,0
DA:42,0
DA:43,0
DA:44,0
DA:45,0
DA:46,0
DA:51,0
DA:54,0
DA:55,0
DA:56,0
DA:59,0
DA:60,0
DA:61,0
DA:64,0
DA:65,0
DA:66,0
DA:69,0
DA:70,0
DA:71,0
DA:75,0
DA:76,0
DA:77,0
DA:78,0
DA:79,0
DA:80,0
DA:81,0
DA:82,0
DA:83,0
DA:84,0
DA:85,0
DA:86,0
DA:96,0
DA:97,0
DA:98,0
DA:99,0
DA:100,0
DA:103,0
DA:104,0
DA:105,0
DA:106,0
DA:112,0
DA:113,0
DA:114,0
DA:115,0
DA:116,0
DA:117,0
DA:118,0
DA:119,0
DA:120,0
DA:121,0
DA:122,0
DA:123,0
DA:124,0
DA:125,0
DA:126,0
DA:127,0
DA:128,0
DA:131,0
DA:132,0
DA:133,0
DA:134,0
DA:135,0
DA:136,0
DA:137,0
DA:138,0
DA:139,0
DA:140,0
DA:141,0
DA:142,0
DA:143,0
DA:144,0
DA:145,0
DA:146,0
DA:152,0
DA:153,0
DA:154,0
DA:155,0
DA:156,0
DA:157,0
DA:158,0
DA:159,0
DA:160,0
DA:161,0
DA:162,0
DA:163,0
DA:164,0
DA:165,0
DA:166,0
DA:167,0
DA:168,0
DA:170,0
DA:171,0
DA:172,0
DA:173,0
DA:174,0
DA:175,0
DA:176,0
DA:178,0
DA:179,0
DA:180,0
DA:181,0
DA:182,0
BRF:0
BRH:0
LF:120
LH:3
end_of_record
